EXPORTS
    LSE_master_colors_max_min @1
    RGBE_to_RGBdivA @2
    RGBE_to_RGBdivA2 @3
    SOIL_create_OGL_single_cubemap @4
    SOIL_create_OGL_texture @5
    SOIL_direct_load_DDS @6
    SOIL_direct_load_DDS_from_memory @7
    SOIL_free_image_data @8
    SOIL_internal_create_OGL_texture @9
    SOIL_last_result @10
    SOIL_load_OGL_HDR_texture @11
    SOIL_load_OGL_cubemap @12
    SOIL_load_OGL_cubemap_from_memory @13
    SOIL_load_OGL_single_cubemap @14
    SOIL_load_OGL_single_cubemap_from_memory @15
    SOIL_load_OGL_texture @16
    SOIL_load_OGL_texture_from_memory @17
    SOIL_load_image @18
    SOIL_load_image_from_memory @19
    SOIL_save_image @20
    SOIL_save_screenshot @21
    _Z12textFileReadPKcPi @22
    _ZGVZN2MR11MachineInfo28IsDirectStateAccessSupportedEvE5state @23 DATA
    _ZGVZN2MR12ModelManager8InstanceEvE1m @24 DATA
    _ZGVZN2MR13ShaderManager8InstanceEvE1m @25 DATA
    _ZGVZN2MR14TextureManager8InstanceEvE1m @26 DATA
    _ZGVZN2MR15MaterialManager8InstanceEvE1m @27 DATA
    _ZGVZN2MR9UIManager8InstanceEvE1m @28 DATA
    _ZN2MR10ISubShaderD0Ev @29
    _ZN2MR10ISubShaderD1Ev @30
    _ZN2MR10ISubShaderD2Ev @31
    _ZN2MR10_DrawParamD1Ev @32
    _ZN2MR11MachineInfo10gl_versionEv @33
    _ZN2MR11MachineInfo10gpu_vendorEv @34
    _ZN2MR11MachineInfo15gl_version_glslEv @35
    _ZN2MR11MachineInfo15total_memory_kbEv @36
    _ZN2MR11MachineInfo16gl_version_majorEv @37
    _ZN2MR11MachineInfo16gl_version_minorEv @38
    _ZN2MR11MachineInfo17current_memory_kbEv @39
    _ZN2MR11MachineInfo17gl_version_stringEv @40
    _ZN2MR11MachineInfo17gpu_vendor_stringEv @41
    _ZN2MR11MachineInfo18gl_extensions_listEv @42
    _ZN2MR11MachineInfo29_IsDirectStateAccessSupportedEv @43
    _ZN2MR11MachineInfo8gpu_nameEv @44
    _ZN2MR12MaterialPass3UseEPNS_13RenderContextE @45
    _ZN2MR12MaterialPass9SetShaderEPNS_6ShaderE @46
    _ZN2MR12MaterialPassC1EPNS_8MaterialE @47
    _ZN2MR12MaterialPassC2EPNS_8MaterialE @48
    _ZN2MR12MaterialPassD1Ev @49
    _ZN2MR12MaterialPassD2Ev @50
    _ZN2MR12ModelManager6CreateERKSsS2_ @51
    _ZN2MR12ModelManagerD0Ev @52
    _ZN2MR12ModelManagerD1Ev @53
    _ZN2MR12RenderTarget19CreateTargetTextureERKhRKNS_7Texture14InternalFormatERKNS3_6FormatERKNS3_4TypeE @54
    _ZN2MR12RenderTarget26CreateCubeMapTargetTextureERKhRKNS_7Texture14InternalFormatERKNS3_6FormatERKNS3_4TypeE @55
    _ZN2MR12RenderTarget4BindEPNS_13RenderContextE @56
    _ZN2MR12RenderTarget4BindERNS_13RenderContextE @57
    _ZN2MR12RenderTarget6UnbindEv @58
    _ZN2MR12RenderTarget7SetNameERKSs @59
    _ZN2MR12RenderTargetC1ERKSsRKhRKtS6_ @60
    _ZN2MR12RenderTargetC2ERKSsRKhRKtS6_ @61
    _ZN2MR12RenderTargetD1Ev @62
    _ZN2MR12RenderTargetD2Ev @63
    _ZN2MR12RenderWindow11GetMousePosEPdS1_ @64
    _ZN2MR12RenderWindow11IsDecoratedEv @65
    _ZN2MR12RenderWindow11IsIconifiedEv @66
    _ZN2MR12RenderWindow11IsResizableEv @67
    _ZN2MR12RenderWindow11MakeCurrentEv @68
    _ZN2MR12RenderWindow11SetMousePosERKdS2_ @69
    _ZN2MR12RenderWindow11ShouldCloseEv @70
    _ZN2MR12RenderWindow11SwapBuffersEv @71
    _ZN2MR12RenderWindow16GetGLFWGammaRampEv @72
    _ZN2MR12RenderWindow17RenderWindowHintsC1Ev @73
    _ZN2MR12RenderWindow17RenderWindowHintsC2Ev @74
    _ZN2MR12RenderWindow18GetClipboardStringEv @75
    _ZN2MR12RenderWindow18GetFrameBufferSizeEPiS1_ @76
    _ZN2MR12RenderWindow18SetClipboardStringEPKc @77
    _ZN2MR12RenderWindow19window_key_callbackEP10GLFWwindowiiii @78
    _ZN2MR12RenderWindow19window_pos_callbackEP10GLFWwindowii @79
    _ZN2MR12RenderWindow20window_char_callbackEP10GLFWwindowj @80
    _ZN2MR12RenderWindow20window_size_callbackEP10GLFWwindowii @81
    _ZN2MR12RenderWindow21RenderWindowCallbacksC1Ev @82
    _ZN2MR12RenderWindow21RenderWindowCallbacksC2Ev @83
    _ZN2MR12RenderWindow21window_close_callbackEP10GLFWwindow @84
    _ZN2MR12RenderWindow22window_scroll_callbackEP10GLFWwindowdd @85
    _ZN2MR12RenderWindow23window_refresh_callbackEP10GLFWwindow @86
    _ZN2MR12RenderWindow24window_iconifed_callbackEP10GLFWwindowi @87
    _ZN2MR12RenderWindow25framebuffer_size_callbackEP10GLFWwindowii @88
    _ZN2MR12RenderWindow25window_mouse_key_callbackEP10GLFWwindowiii @89
    _ZN2MR12RenderWindow29window_focus_changed_callbackEP10GLFWwindowi @90
    _ZN2MR12RenderWindow30window_cursor_entered_callbackEP10GLFWwindowi @91
    _ZN2MR12RenderWindow34window_cursor_pos_changed_callbackEP10GLFWwindowdd @92
    _ZN2MR12RenderWindow5CloseEv @93
    _ZN2MR12RenderWindow6GetPosEPiS1_ @94
    _ZN2MR12RenderWindow6SetPosERKiS2_ @95
    _ZN2MR12RenderWindow7GetSizeEPiS1_ @96
    _ZN2MR12RenderWindow7SetSizeERKiS2_ @97
    _ZN2MR12RenderWindow7VisibleERKb @98
    _ZN2MR12RenderWindow8SetGammaERKf @99
    _ZN2MR12RenderWindow8SyncWaitERKi @100
    _ZN2MR12RenderWindow9IsFocusedEv @101
    _ZN2MR12RenderWindow9IsVisibleEv @102
    _ZN2MR12RenderWindow9SetTitleCEPKc @103
    _ZN2MR12RenderWindowC1ERKSsRKiS4_RKNS0_17RenderWindowHintsERKNS0_21RenderWindowCallbacksEP10GLFWwindow @104
    _ZN2MR12RenderWindowC2ERKSsRKiS4_RKNS0_17RenderWindowHintsERKNS0_21RenderWindowCallbacksEP10GLFWwindow @105
    _ZN2MR12RenderWindowD1Ev @106
    _ZN2MR12RenderWindowD2Ev @107
    _ZN2MR12SceneManager12CreateCameraERKN3glm6detail5tvec3IfEES6_RKfS8_S8_S8_ @108
    _ZN2MR12SceneManager12CreateEntityEPNS_5ModelE @109
    _ZN2MR12SceneManager12CreateEntityERKSs @110
    _ZN2MR12SceneManager12DeleteCameraEPNS_6CameraE @111
    _ZN2MR12SceneManager12DeleteEntityEPNS_6EntityE @112
    _ZN2MR12SceneManager12RemoveCameraEPNS_6CameraE @113
    _ZN2MR12SceneManager12RemoveEntityEPNS_6EntityE @114
    _ZN2MR12SceneManager13SetMainCameraEPNS_6CameraE @115
    _ZN2MR12SceneManager4DrawEPNS_13RenderContextE @116
    _ZN2MR12SceneManager4DrawERNS_13RenderContextE @117
    _ZN2MR12SceneManager9AddCameraEPNS_6CameraE @118
    _ZN2MR12SceneManager9AddEntityEPNS_6EntityE @119
    _ZN2MR12SceneManagerC1Ev @120
    _ZN2MR12SceneManagerC2Ev @121
    _ZN2MR12SceneManagerD0Ev @122
    _ZN2MR12SceneManagerD1Ev @123
    _ZN2MR12SceneManagerD2Ev @124
    _ZN2MR12TextureArray3AddEPv @125
    _ZN2MR12TextureArray6UpdateERKjPv @126
    _ZN2MR12TextureArray7SupportERKNS_7Texture14InternalFormatE @127
    _ZN2MR12TextureArrayC1ERKNS_7Texture14InternalFormatERKNS1_6FormatERKNS1_4TypeERKtSC_RKj @128
    _ZN2MR12TextureArrayC2ERKNS_7Texture14InternalFormatERKNS1_6FormatERKNS1_4TypeERKtSC_RKj @129
    _ZN2MR12TextureArrayD0Ev @130
    _ZN2MR12TextureArrayD1Ev @131
    _ZN2MR12TextureArrayD2Ev @132
    _ZN2MR13FileResSource4OpenEv @133
    _ZN2MR13FileResSource4ReadEPcj @134
    _ZN2MR13FileResSource4SizeEv @135
    _ZN2MR13FileResSource5CloseEv @136
    _ZN2MR13FileResSource5FlushEv @137
    _ZN2MR13FileResSource5WriteEPcj @138
    _ZN2MR13FileResSourceC1EbbSs @139
    _ZN2MR13FileResSourceC2EbbSs @140
    _ZN2MR13FileResSourceD0Ev @141
    _ZN2MR13FileResSourceD1Ev @142
    _ZN2MR13FileResSourceD2Ev @143
    _ZN2MR13LoadGLCubemapEPKhRKjPKcS3_RKNS_19GLTextureLoadFormatERKNS_18GLTextureLoadFlagsE @144
    _ZN2MR13LoadGLCubemapEPKhRKjS1_S3_S1_S3_S1_S3_S1_S3_S1_S3_S3_RKNS_19GLTextureLoadFormatERKNS_18GLTextureLoadFlagsE @145
    _ZN2MR13LoadGLCubemapERKSsPKcRKjRKNS_19GLTextureLoadFormatERKNS_18GLTextureLoadFlagsE @146
    _ZN2MR13LoadGLCubemapERKSsS1_S1_S1_S1_S1_RKjRKNS_19GLTextureLoadFormatERKNS_18GLTextureLoadFlagsE @147
    _ZN2MR13LoadGLTextureEPKhRKjS3_RKNS_19GLTextureLoadFormatERKNS_18GLTextureLoadFlagsE @148
    _ZN2MR13LoadGLTextureERKSsRKjRKNS_19GLTextureLoadFormatERKNS_18GLTextureLoadFlagsE @149
    _ZN2MR13RenderContext10DrawEntityEPNS_6EntityE @150
    _ZN2MR13RenderContext10DrawEntityEPPNS_6EntityERKjRKb @151
    _ZN2MR13RenderContext11BindTextureEPNS_7TextureERKj @152
    _ZN2MR13RenderContext11BindTextureERKNS_7Texture6TargetERKjS6_ @153
    _ZN2MR13RenderContext11SetViewportERKtS2_S2_S2_ @154
    _ZN2MR13RenderContext17ActiveTextureUnitERKj @155
    _ZN2MR13RenderContext17UseGeometryBufferEPNS_14GeometryBufferE @156
    _ZN2MR13RenderContext18DrawGeometryBufferEPNS_14GeometryBufferE @157
    _ZN2MR13RenderContext18SetDefaultMaterialEPNS_8MaterialE @158
    _ZN2MR13RenderContext18UseDefaultMaterialERKb @159
    _ZN2MR13RenderContext18UseTextureSettingsESt10shared_ptrINS_15TextureSettingsEERKj @160
    _ZN2MR13RenderContext20DrawGeomWithMaterialEPN3glm6detail7tmat4x4IfEEPNS_14GeometryBufferEPNS_8MaterialE @161
    _ZN2MR13RenderContext24DrawGeomWithMaterialPassEPN3glm6detail7tmat4x4IfEEPNS_14GeometryBufferEPNS_12MaterialPassE @162
    _ZN2MR13RenderContext3FPSEv @163
    _ZN2MR13RenderContext4InitEv @164
    _ZN2MR13RenderContext5DeltaEv @165
    _ZN2MR13RenderContext9UseCameraEPNS_6CameraE @166
    _ZN2MR13RenderContext9UseShaderEPNS_6ShaderE @167
    _ZN2MR13RenderContext9_instanceE @168 DATA
    _ZN2MR13RenderContextC1Ev @169
    _ZN2MR13RenderContextC2Ev @170
    _ZN2MR13RenderContextD1Ev @171
    _ZN2MR13RenderContextD2Ev @172
    _ZN2MR13ShaderManager6CreateERKSsS2_ @173
    _ZN2MR13ShaderManagerD0Ev @174
    _ZN2MR13ShaderManagerD1Ev @175
    _ZN2MR13ShaderUniform14GetGPULocationEv @176
    _ZN2MR13ShaderUniform3MapEPNS_7IShaderE @177
    _ZN2MR13ShaderUniform7GetNameEv @178
    _ZN2MR13ShaderUniform7GetTypeEv @179
    _ZN2MR13ShaderUniform8GetValueEv @180
    _ZN2MR13ShaderUniform8SetValueEPv @181
    _ZN2MR13ShaderUniform8ToStringEv @182
    _ZN2MR13ShaderUniformC1EPKcRKNS_14IShaderUniform5TypesEPvPNS_7IShaderE @183
    _ZN2MR13ShaderUniformC2EPKcRKNS_14IShaderUniform5TypesEPvPNS_7IShaderE @184
    _ZN2MR13ShaderUniformD0Ev @185
    _ZN2MR13ShaderUniformD1Ev @186
    _ZN2MR13ShaderUniformD2Ev @187
    _ZN2MR14GeometryBuffer10CalcRadiusEPf @188
    _ZN2MR14GeometryBuffer10CalcRadiusEv @189
    _ZN2MR14GeometryBuffer10CreateCubeERKN3glm6detail5tvec3IfEES4_RKNS0_5UsageERKNS0_8DrawModeE @190
    _ZN2MR14GeometryBuffer11CreatePlaneERKN3glm6detail5tvec3IfEES4_RKNS0_5UsageERKNS0_8DrawModeE @191
    _ZN2MR14GeometryBuffer11SetDrawModeERKNS0_8DrawModeE @192
    _ZN2MR14GeometryBuffer11SetInstDataEPNS_19InstancedDataBufferE @193
    _ZN2MR14GeometryBuffer4BindEv @194
    _ZN2MR14GeometryBuffer4CopyEv @195
    _ZN2MR14GeometryBuffer4DrawEv @196
    _ZN2MR14GeometryBuffer6UnbindEv @197
    _ZN2MR14GeometryBuffer8GetIDataEPv @198
    _ZN2MR14GeometryBuffer8GetVDataEPv @199
    _ZN2MR14GeometryBufferC1EPNS_17VertexDeclarationEPNS_16IndexDeclarationEPvjS5_jjjRKNS0_5UsageES8_RKNS0_8DrawModeEb @200
    _ZN2MR14GeometryBufferC1EPNS_17VertexDeclarationEPNS_16IndexDeclarationEjjjjRKNS0_8DrawModeEb @201
    _ZN2MR14GeometryBufferC2EPNS_17VertexDeclarationEPNS_16IndexDeclarationEPvjS5_jjjRKNS0_5UsageES8_RKNS0_8DrawModeEb @202
    _ZN2MR14GeometryBufferC2EPNS_17VertexDeclarationEPNS_16IndexDeclarationEjjjjRKNS0_8DrawModeEb @203
    _ZN2MR14GeometryBufferD0Ev @204
    _ZN2MR14GeometryBufferD1Ev @205
    _ZN2MR14GeometryBufferD2Ev @206
    _ZN2MR14IShaderUniformD0Ev @207
    _ZN2MR14IShaderUniformD1Ev @208
    _ZN2MR14IShaderUniformD2Ev @209
    _ZN2MR14SaveScreenshotERKSsRKNS_15GLImageSaveTypeERKiS6_S6_S6_ @210
    _ZN2MR14TextureManager13_StoreTextureEPjPvRKNS_7Texture14InternalFormatERKNS3_6FormatERKNS3_4TypeERKtSE_ @211
    _ZN2MR14TextureManager6CreateERKSsRKj @212
    _ZN2MR14TextureManager6CreateERKSsS2_ @213
    _ZN2MR14TextureManagerC1Ev @214
    _ZN2MR14TextureManagerC2Ev @215
    _ZN2MR14TextureManagerD0Ev @216
    _ZN2MR14TextureManagerD1Ev @217
    _ZN2MR14TextureManagerD2Ev @218
    _ZN2MR15ResourceManager13CreateAndLoadERKSsS2_ @219
    _ZN2MR15ResourceManager21GetDebugMessagesStateEv @220
    _ZN2MR15ResourceManager21SetDebugMessagesStateERKb @221
    _ZN2MR15ResourceManager3AddEPNS_8ResourceE @222
    _ZN2MR15ResourceManager3GetERKSs @223
    _ZN2MR15ResourceManager4FindERKSs @224
    _ZN2MR15ResourceManager4NeedERKSs @225
    _ZN2MR15ResourceManager6RemoveEPNS_8ResourceE @226
    _ZN2MR15ResourceManager6RemoveERKSsS2_ @227
    _ZN2MR15ResourceManager9RemoveAllEv @228
    _ZN2MR15ResourceManagerD2Ev @229
    _ZN2MR15TextureSettings10SetLodBiasERKf @230
    _ZN2MR15TextureSettings12SetMagFilterERKNS0_9MagFilterE @231
    _ZN2MR15TextureSettings12SetMinFilterERKNS0_9MinFilterE @232
    _ZN2MR15TextureSettings14SetBorderColorEPf @233
    _ZN2MR15TextureSettings14SetBorderColorERKfS2_S2_S2_ @234
    _ZN2MR15TextureSettings14SetCompareFuncERKNS0_11CompareFuncE @235
    _ZN2MR15TextureSettings14SetCompareModeERKNS0_11CompareModeE @236
    _ZN2MR15TextureSettings4CopyEv @237
    _ZN2MR15TextureSettings8SetWrapRERKNS0_4WrapE @238
    _ZN2MR15TextureSettings8SetWrapSERKNS0_4WrapE @239
    _ZN2MR15TextureSettings8SetWrapTERKNS0_4WrapE @240
    _ZN2MR15TextureSettings9SetMaxLodERKi @241
    _ZN2MR15TextureSettings9SetMinLodERKi @242
    _ZN2MR15TextureSettingsC1Ev @243
    _ZN2MR15TextureSettingsC2Ev @244
    _ZN2MR15TextureSettingsD0Ev @245
    _ZN2MR15TextureSettingsD1Ev @246
    _ZN2MR15TextureSettingsD2Ev @247
    _ZN2MR15ThrowExceptionsERKb @248
    _ZN2MR15ThrowExceptionsEv @249
    _ZN2MR16IndexDeclarationC1ERKNS0_8DataTypeE @250
    _ZN2MR16IndexDeclarationC2ERKNS0_8DataTypeE @251
    _ZN2MR17InstancedDataType10BufferDataEPvRKiRKj @252
    _ZN2MR17InstancedDataType4BindEv @253
    _ZN2MR17InstancedDataType6UnbindEv @254
    _ZN2MR17InstancedDataTypeC1EPvRKiRKj @255
    _ZN2MR17InstancedDataTypeC2EPvRKiRKj @256
    _ZN2MR17InstancedDataTypeD0Ev @257
    _ZN2MR17InstancedDataTypeD1Ev @258
    _ZN2MR17VertexDeclaration14ClearTypesListEv @259
    _ZN2MR17VertexDeclaration7AddTypeERKNS_21VertexDeclarationType8DataTypeEPKv @260
    _ZN2MR17VertexDeclarationC1EPNS_21VertexDeclarationTypeERKtRKNS0_8DataTypeE @261
    _ZN2MR17VertexDeclarationC1ERKNS0_8DataTypeE @262
    _ZN2MR17VertexDeclarationC2EPNS_21VertexDeclarationTypeERKtRKNS0_8DataTypeE @263
    _ZN2MR17VertexDeclarationC2ERKNS0_8DataTypeE @264
    _ZN2MR17VertexDeclarationD1Ev @265
    _ZN2MR17VertexDeclarationD2Ev @266
    _ZN2MR18ShaderUniformBlock10BufferDataEPhRKjS3_ @267
    _ZN2MR18ShaderUniformBlock12GetBlockSizeEv @268
    _ZN2MR18ShaderUniformBlock14GetNumUniformsEv @269
    _ZN2MR18ShaderUniformBlock15GetUniformNamesEv @270
    _ZN2MR18ShaderUniformBlock20GetUniformGPUOffsetsEv @271
    _ZN2MR18ShaderUniformBlock21GetUniformGPUIndeciesEv @272
    _ZN2MR18ShaderUniformBlock3MapEPNS_7IShaderE @273
    _ZN2MR18ShaderUniformBlock7GetDataEv @274
    _ZN2MR18ShaderUniformBlock7GetNameEv @275
    _ZN2MR18ShaderUniformBlockC1ERKSsRKiPSsPNS_7IShaderE @276
    _ZN2MR18ShaderUniformBlockC2ERKSsRKiPSsPNS_7IShaderE @277
    _ZN2MR18ShaderUniformBlockD0Ev @278
    _ZN2MR18ShaderUniformBlockD1Ev @279
    _ZN2MR18ShaderUniformBlockD2Ev @280
    _ZN2MR19IShaderUniformBlockD0Ev @281
    _ZN2MR19IShaderUniformBlockD1Ev @282
    _ZN2MR19InstancedDataBuffer4BindEv @283
    _ZN2MR19InstancedDataBuffer6UnbindEv @284
    _ZN2MR21DirectoryFromFilePathERKSs @285
    _ZN2MR21VertexDeclarationTypeC1ERKNS0_8DataTypeEPKv @286
    _ZN2MR21VertexDeclarationTypeC1Ev @287
    _ZN2MR21VertexDeclarationTypeC2ERKNS0_8DataTypeEPKv @288
    _ZN2MR21VertexDeclarationTypeC2Ev @289
    _ZN2MR23ThrowCriticalExceptionsERKb @290
    _ZN2MR23ThrowCriticalExceptionsEv @291
    _ZN2MR3Log10_callbacksE @292 DATA
    _ZN2MR4Mesh12SetMaterialsEPPNS_8MaterialERKj @293
    _ZN2MR4Mesh14SetGeomBuffersEPPNS_14GeometryBufferERKj @294
    _ZN2MR4Mesh20SetResourceFreeStateERKb @295
    _ZN2MR4MeshC1EPPNS_14GeometryBufferEjPPNS_8MaterialEj @296
    _ZN2MR4MeshC2EPPNS_14GeometryBufferEjPPNS_8MaterialEj @297
    _ZN2MR4MeshD0Ev @298
    _ZN2MR4MeshD1Ev @299
    _ZN2MR4MeshD2Ev @300
    _ZN2MR5EventIIPKcEE3AddERKPFvPvS2_E @301
    _ZN2MR5EventIIPKcEE3SubERKPFvPvS2_E @302
    _ZN2MR5EventIIPKcEE6SubAllEv @303
    _ZN2MR5EventIIPKcEED0Ev @304
    _ZN2MR5EventIIPKcEED1Ev @305
    _ZN2MR5EventIIPN3glm6detail7tmat4x4IfEEEE3AddERKPFvPvS5_E @306
    _ZN2MR5EventIIPN3glm6detail7tmat4x4IfEEEE3SubERKPFvPvS5_E @307
    _ZN2MR5EventIIPN3glm6detail7tmat4x4IfEEEE6SubAllEv @308
    _ZN2MR5EventIIPN3glm6detail7tmat4x4IfEEEED0Ev @309
    _ZN2MR5EventIIPN3glm6detail7tmat4x4IfEEEED1Ev @310
    _ZN2MR5EventIIPNS_12RenderTargetEEE3AddERKPFvPvS2_E @311
    _ZN2MR5EventIIPNS_12RenderTargetEEE3SubERKPFvPvS2_E @312
    _ZN2MR5EventIIPNS_12RenderTargetEEE6SubAllEv @313
    _ZN2MR5EventIIPNS_12RenderTargetEEED0Ev @314
    _ZN2MR5EventIIPNS_12RenderTargetEEED1Ev @315
    _ZN2MR5EventIIPNS_14GeometryBufferEEE3AddERKPFvPvS2_E @316
    _ZN2MR5EventIIPNS_14GeometryBufferEEE3SubERKPFvPvS2_E @317
    _ZN2MR5EventIIPNS_14GeometryBufferEEE6SubAllEv @318
    _ZN2MR5EventIIPNS_14GeometryBufferEEED0Ev @319
    _ZN2MR5EventIIPNS_14GeometryBufferEEED1Ev @320
    _ZN2MR5EventIIPNS_19InstancedDataBufferEEE3AddERKPFvPvS2_E @321
    _ZN2MR5EventIIPNS_19InstancedDataBufferEEE3SubERKPFvPvS2_E @322
    _ZN2MR5EventIIPNS_19InstancedDataBufferEEE6SubAllEv @323
    _ZN2MR5EventIIPNS_19InstancedDataBufferEEED0Ev @324
    _ZN2MR5EventIIPNS_19InstancedDataBufferEEED1Ev @325
    _ZN2MR5EventIIPNS_5ModelEEE3AddERKPFvPvS2_E @326
    _ZN2MR5EventIIPNS_5ModelEEE3SubERKPFvPvS2_E @327
    _ZN2MR5EventIIPNS_5ModelEEE6SubAllEv @328
    _ZN2MR5EventIIPNS_5ModelEEED0Ev @329
    _ZN2MR5EventIIPNS_5ModelEEED1Ev @330
    _ZN2MR5EventIIPNS_6CameraEEE3AddERKPFvPvS2_E @331
    _ZN2MR5EventIIPNS_6CameraEEE3SubERKPFvPvS2_E @332
    _ZN2MR5EventIIPNS_6CameraEEE6SubAllEv @333
    _ZN2MR5EventIIPNS_6CameraEEED0Ev @334
    _ZN2MR5EventIIPNS_6CameraEEED1Ev @335
    _ZN2MR5EventIIPNS_6EntityEEE3AddERKPFvPvS2_E @336
    _ZN2MR5EventIIPNS_6EntityEEE3SubERKPFvPvS2_E @337
    _ZN2MR5EventIIPNS_6EntityEEE6SubAllEv @338
    _ZN2MR5EventIIPNS_6EntityEEED0Ev @339
    _ZN2MR5EventIIPNS_6EntityEEED1Ev @340
    _ZN2MR5EventIIPNS_6ShaderEEE3AddERKPFvPvS2_E @341
    _ZN2MR5EventIIPNS_6ShaderEEE3SubERKPFvPvS2_E @342
    _ZN2MR5EventIIPNS_6ShaderEEE6SubAllEv @343
    _ZN2MR5EventIIPNS_6ShaderEEED0Ev @344
    _ZN2MR5EventIIPNS_6ShaderEEED1Ev @345
    _ZN2MR5EventIIPNS_7IShaderERKiEE3AddERKPFvPvS2_S4_E @346
    _ZN2MR5EventIIPNS_7IShaderERKiEE3SubERKPFvPvS2_S4_E @347
    _ZN2MR5EventIIPNS_7IShaderERKiEE6SubAllEv @348
    _ZN2MR5EventIIPNS_7IShaderERKiEED0Ev @349
    _ZN2MR5EventIIPNS_7IShaderERKiEED1Ev @350
    _ZN2MR5EventIIPNS_8MaterialEEE3AddERKPFvPvS2_E @351
    _ZN2MR5EventIIPNS_8MaterialEEE3SubERKPFvPvS2_E @352
    _ZN2MR5EventIIPNS_8MaterialEEE6SubAllEv @353
    _ZN2MR5EventIIPNS_8MaterialEEED0Ev @354
    _ZN2MR5EventIIPNS_8MaterialEEED1Ev @355
    _ZN2MR5EventIIPPNS_14GeometryBufferEjEE3AddERKPFvPvS3_jE @356
    _ZN2MR5EventIIPPNS_14GeometryBufferEjEE3SubERKPFvPvS3_jE @357
    _ZN2MR5EventIIPPNS_14GeometryBufferEjEE6SubAllEv @358
    _ZN2MR5EventIIPPNS_14GeometryBufferEjEED0Ev @359
    _ZN2MR5EventIIPPNS_14GeometryBufferEjEED1Ev @360
    _ZN2MR5EventIIPPNS_8MaterialEjEE3AddERKPFvPvS3_jE @361
    _ZN2MR5EventIIPPNS_8MaterialEjEE3SubERKPFvPvS3_jE @362
    _ZN2MR5EventIIPPNS_8MaterialEjEE6SubAllEv @363
    _ZN2MR5EventIIPPNS_8MaterialEjEED0Ev @364
    _ZN2MR5EventIIPPNS_8MaterialEjEED1Ev @365
    _ZN2MR5EventIIPfEE3AddERKPFvPvS1_E @366
    _ZN2MR5EventIIPfEE3SubERKPFvPvS1_E @367
    _ZN2MR5EventIIPfEE6SubAllEv @368
    _ZN2MR5EventIIPfEED0Ev @369
    _ZN2MR5EventIIPfEED1Ev @370
    _ZN2MR5EventIIPvEE3AddERKPFvS1_S1_E @371
    _ZN2MR5EventIIPvEE3SubERKPFvS1_S1_E @372
    _ZN2MR5EventIIPvEE6SubAllEv @373
    _ZN2MR5EventIIPvEED0Ev @374
    _ZN2MR5EventIIPvEED1Ev @375
    _ZN2MR5EventIIRKN3glm6detail5tvec2IfEEEE3AddERKPFvPvS6_E @376
    _ZN2MR5EventIIRKN3glm6detail5tvec2IfEEEE3SubERKPFvPvS6_E @377
    _ZN2MR5EventIIRKN3glm6detail5tvec2IfEEEE6SubAllEv @378
    _ZN2MR5EventIIRKN3glm6detail5tvec2IfEEEED0Ev @379
    _ZN2MR5EventIIRKN3glm6detail5tvec2IfEEEED1Ev @380
    _ZN2MR5EventIIRKN3glm6detail5tvec3IfEEEE3AddERKPFvPvS6_E @381
    _ZN2MR5EventIIRKN3glm6detail5tvec3IfEEEE3SubERKPFvPvS6_E @382
    _ZN2MR5EventIIRKN3glm6detail5tvec3IfEEEE6SubAllEv @383
    _ZN2MR5EventIIRKN3glm6detail5tvec3IfEEEED0Ev @384
    _ZN2MR5EventIIRKN3glm6detail5tvec3IfEEEED1Ev @385
    _ZN2MR5EventIIRKN3glm6detail5tvec4IfEEEE3AddERKPFvPvS6_E @386
    _ZN2MR5EventIIRKN3glm6detail5tvec4IfEEEE3SubERKPFvPvS6_E @387
    _ZN2MR5EventIIRKN3glm6detail5tvec4IfEEEE6SubAllEv @388
    _ZN2MR5EventIIRKN3glm6detail5tvec4IfEEEED0Ev @389
    _ZN2MR5EventIIRKN3glm6detail5tvec4IfEEEED1Ev @390
    _ZN2MR5EventIIRKNS_14GeometryBuffer8DrawModeEEE3AddERKPFvPvS4_E @391
    _ZN2MR5EventIIRKNS_14GeometryBuffer8DrawModeEEE3SubERKPFvPvS4_E @392
    _ZN2MR5EventIIRKNS_14GeometryBuffer8DrawModeEEE6SubAllEv @393
    _ZN2MR5EventIIRKNS_14GeometryBuffer8DrawModeEEED0Ev @394
    _ZN2MR5EventIIRKNS_14GeometryBuffer8DrawModeEEED1Ev @395
    _ZN2MR5EventIIRKNS_15TextureSettings11CompareFuncEEE3AddERKPFvPvS4_E @396
    _ZN2MR5EventIIRKNS_15TextureSettings11CompareFuncEEE3SubERKPFvPvS4_E @397
    _ZN2MR5EventIIRKNS_15TextureSettings11CompareFuncEEE6SubAllEv @398
    _ZN2MR5EventIIRKNS_15TextureSettings11CompareFuncEEED0Ev @399
    _ZN2MR5EventIIRKNS_15TextureSettings11CompareFuncEEED1Ev @400
    _ZN2MR5EventIIRKNS_15TextureSettings11CompareModeEEE3AddERKPFvPvS4_E @401
    _ZN2MR5EventIIRKNS_15TextureSettings11CompareModeEEE3SubERKPFvPvS4_E @402
    _ZN2MR5EventIIRKNS_15TextureSettings11CompareModeEEE6SubAllEv @403
    _ZN2MR5EventIIRKNS_15TextureSettings11CompareModeEEED0Ev @404
    _ZN2MR5EventIIRKNS_15TextureSettings11CompareModeEEED1Ev @405
    _ZN2MR5EventIIRKNS_15TextureSettings4WrapEEE3AddERKPFvPvS4_E @406
    _ZN2MR5EventIIRKNS_15TextureSettings4WrapEEE3SubERKPFvPvS4_E @407
    _ZN2MR5EventIIRKNS_15TextureSettings4WrapEEE6SubAllEv @408
    _ZN2MR5EventIIRKNS_15TextureSettings4WrapEEED0Ev @409
    _ZN2MR5EventIIRKNS_15TextureSettings4WrapEEED1Ev @410
    _ZN2MR5EventIIRKNS_15TextureSettings9MagFilterEEE3AddERKPFvPvS4_E @411
    _ZN2MR5EventIIRKNS_15TextureSettings9MagFilterEEE3SubERKPFvPvS4_E @412
    _ZN2MR5EventIIRKNS_15TextureSettings9MagFilterEEE6SubAllEv @413
    _ZN2MR5EventIIRKNS_15TextureSettings9MagFilterEEED0Ev @414
    _ZN2MR5EventIIRKNS_15TextureSettings9MagFilterEEED1Ev @415
    _ZN2MR5EventIIRKNS_15TextureSettings9MinFilterEEE3AddERKPFvPvS4_E @416
    _ZN2MR5EventIIRKNS_15TextureSettings9MinFilterEEE3SubERKPFvPvS4_E @417
    _ZN2MR5EventIIRKNS_15TextureSettings9MinFilterEEE6SubAllEv @418
    _ZN2MR5EventIIRKNS_15TextureSettings9MinFilterEEED0Ev @419
    _ZN2MR5EventIIRKNS_15TextureSettings9MinFilterEEED1Ev @420
    _ZN2MR5EventIIRKNS_4RectEEE3AddERKPFvPvS3_E @421
    _ZN2MR5EventIIRKNS_4RectEEE3SubERKPFvPvS3_E @422
    _ZN2MR5EventIIRKNS_4RectEEE6SubAllEv @423
    _ZN2MR5EventIIRKNS_4RectEEED0Ev @424
    _ZN2MR5EventIIRKNS_4RectEEED1Ev @425
    _ZN2MR5EventIIRKNS_6Camera10CameraModeEEE3AddERKPFvPvS4_E @426
    _ZN2MR5EventIIRKNS_6Camera10CameraModeEEE3SubERKPFvPvS4_E @427
    _ZN2MR5EventIIRKNS_6Camera10CameraModeEEE6SubAllEv @428
    _ZN2MR5EventIIRKNS_6Camera10CameraModeEEED0Ev @429
    _ZN2MR5EventIIRKNS_6Camera10CameraModeEEED1Ev @430
    _ZN2MR5EventIIRKNS_6Camera16CameraProjectionEEE3AddERKPFvPvS4_E @431
    _ZN2MR5EventIIRKNS_6Camera16CameraProjectionEEE3SubERKPFvPvS4_E @432
    _ZN2MR5EventIIRKNS_6Camera16CameraProjectionEEE6SubAllEv @433
    _ZN2MR5EventIIRKNS_6Camera16CameraProjectionEEED0Ev @434
    _ZN2MR5EventIIRKNS_6Camera16CameraProjectionEEED1Ev @435
    _ZN2MR5EventIIRKSsEE3AddERKPFvPvS2_E @436
    _ZN2MR5EventIIRKSsEE3SubERKPFvPvS2_E @437
    _ZN2MR5EventIIRKSsEE6SubAllEv @438
    _ZN2MR5EventIIRKSsEED0Ev @439
    _ZN2MR5EventIIRKSsEED1Ev @440
    _ZN2MR5EventIIRKSsRKNS_10ISubShader4TypeEEE3AddERKPFvPvS2_S6_E @441
    _ZN2MR5EventIIRKSsRKNS_10ISubShader4TypeEEE3SubERKPFvPvS2_S6_E @442
    _ZN2MR5EventIIRKSsRKNS_10ISubShader4TypeEEE6SubAllEv @443
    _ZN2MR5EventIIRKSsRKNS_10ISubShader4TypeEEED0Ev @444
    _ZN2MR5EventIIRKSsRKNS_10ISubShader4TypeEEED1Ev @445
    _ZN2MR5EventIIRKbEE3AddERKPFvPvS2_E @446
    _ZN2MR5EventIIRKbEE3SubERKPFvPvS2_E @447
    _ZN2MR5EventIIRKbEE6SubAllEv @448
    _ZN2MR5EventIIRKbEED0Ev @449
    _ZN2MR5EventIIRKbEED1Ev @450
    _ZN2MR5EventIIRKdS2_EE3AddERKPFvPvS2_S2_E @451
    _ZN2MR5EventIIRKdS2_EE3SubERKPFvPvS2_S2_E @452
    _ZN2MR5EventIIRKdS2_EE6SubAllEv @453
    _ZN2MR5EventIIRKdS2_EED0Ev @454
    _ZN2MR5EventIIRKdS2_EED1Ev @455
    _ZN2MR5EventIIRKfEE3AddERKPFvPvS2_E @456
    _ZN2MR5EventIIRKfEE3SubERKPFvPvS2_E @457
    _ZN2MR5EventIIRKfEE6SubAllEv @458
    _ZN2MR5EventIIRKfEED0Ev @459
    _ZN2MR5EventIIRKfEED1Ev @460
    _ZN2MR5EventIIRKiEE3AddERKPFvPvS2_E @461
    _ZN2MR5EventIIRKiEE3SubERKPFvPvS2_E @462
    _ZN2MR5EventIIRKiEE6SubAllEv @463
    _ZN2MR5EventIIRKiEED0Ev @464
    _ZN2MR5EventIIRKiEED1Ev @465
    _ZN2MR5EventIIRKiRKNS_7Texture14InternalFormatES2_S2_RKNS3_6FormatERKNS3_4TypeEPvEE3AddERKPFvSD_S2_S6_S2_S2_S9_SC_SD_E @466
    _ZN2MR5EventIIRKiRKNS_7Texture14InternalFormatES2_S2_RKNS3_6FormatERKNS3_4TypeEPvEE3SubERKPFvSD_S2_S6_S2_S2_S9_SC_SD_E @467
    _ZN2MR5EventIIRKiRKNS_7Texture14InternalFormatES2_S2_RKNS3_6FormatERKNS3_4TypeEPvEE6SubAllEv @468
    _ZN2MR5EventIIRKiRKNS_7Texture14InternalFormatES2_S2_RKNS3_6FormatERKNS3_4TypeEPvEED0Ev @469
    _ZN2MR5EventIIRKiRKNS_7Texture14InternalFormatES2_S2_RKNS3_6FormatERKNS3_4TypeEPvEED1Ev @470
    _ZN2MR5EventIIRKiS2_EE3AddERKPFvPvS2_S2_E @471
    _ZN2MR5EventIIRKiS2_EE3SubERKPFvPvS2_S2_E @472
    _ZN2MR5EventIIRKiS2_EE6SubAllEv @473
    _ZN2MR5EventIIRKiS2_EED0Ev @474
    _ZN2MR5EventIIRKiS2_EED1Ev @475
    _ZN2MR5EventIIRKiS2_S2_EE3AddERKPFvPvS2_S2_S2_E @476
    _ZN2MR5EventIIRKiS2_S2_EE3SubERKPFvPvS2_S2_S2_E @477
    _ZN2MR5EventIIRKiS2_S2_EE6SubAllEv @478
    _ZN2MR5EventIIRKiS2_S2_EED0Ev @479
    _ZN2MR5EventIIRKiS2_S2_EED1Ev @480
    _ZN2MR5EventIIRKiS2_S2_S2_EE3AddERKPFvPvS2_S2_S2_S2_E @481
    _ZN2MR5EventIIRKiS2_S2_S2_EE3SubERKPFvPvS2_S2_S2_S2_E @482
    _ZN2MR5EventIIRKiS2_S2_S2_EE6SubAllEv @483
    _ZN2MR5EventIIRKiS2_S2_S2_EED0Ev @484
    _ZN2MR5EventIIRKiS2_S2_S2_EED1Ev @485
    _ZN2MR5EventIIRKiS2_S2_S2_S2_RKNS_7Texture6FormatERKNS3_4TypeEPvEE3AddERKPFvSA_S2_S2_S2_S2_S2_S6_S9_SA_E @486
    _ZN2MR5EventIIRKiS2_S2_S2_S2_RKNS_7Texture6FormatERKNS3_4TypeEPvEE3SubERKPFvSA_S2_S2_S2_S2_S2_S6_S9_SA_E @487
    _ZN2MR5EventIIRKiS2_S2_S2_S2_RKNS_7Texture6FormatERKNS3_4TypeEPvEE6SubAllEv @488
    _ZN2MR5EventIIRKiS2_S2_S2_S2_RKNS_7Texture6FormatERKNS3_4TypeEPvEED0Ev @489
    _ZN2MR5EventIIRKiS2_S2_S2_S2_RKNS_7Texture6FormatERKNS3_4TypeEPvEED1Ev @490
    _ZN2MR5EventIIRKjEE3AddERKPFvPvS2_E @491
    _ZN2MR5EventIIRKjEE3SubERKPFvPvS2_E @492
    _ZN2MR5EventIIRKjEE6SubAllEv @493
    _ZN2MR5EventIIRKjEED0Ev @494
    _ZN2MR5EventIIRKjEED1Ev @495
    _ZN2MR5EventIISt10shared_ptrINS_15TextureSettingsEEEE3AddERKPFvPvS3_E @496
    _ZN2MR5EventIISt10shared_ptrINS_15TextureSettingsEEEE3SubERKPFvPvS3_E @497
    _ZN2MR5EventIISt10shared_ptrINS_15TextureSettingsEEEE6SubAllEv @498
    _ZN2MR5EventIISt10shared_ptrINS_15TextureSettingsEEEED0Ev @499
    _ZN2MR5EventIISt10shared_ptrINS_15TextureSettingsEEEED1Ev @500
    _ZN2MR5EventIIbEE3AddERKPFvPvbE @501
    _ZN2MR5EventIIbEE3SubERKPFvPvbE @502
    _ZN2MR5EventIIbEE6SubAllEv @503
    _ZN2MR5EventIIbEED0Ev @504
    _ZN2MR5EventIIbEED1Ev @505
    _ZN2MR5Model4LoadEv @506
    _ZN2MR5Model6GetLodERKf @507
    _ZN2MR5Model6UnLoadEv @508
    _ZN2MR5ModelC1EPNS_12ModelManagerESsSs @509
    _ZN2MR5ModelC2EPNS_12ModelManagerESsSs @510
    _ZN2MR5ModelD0Ev @511
    _ZN2MR5ModelD1Ev @512
    _ZN2MR5ModelD2Ev @513
    _ZN2MR5Super8ToStringEv @514
    _ZN2MR5SuperC1Ev @515
    _ZN2MR5SuperC2Ev @516
    _ZN2MR5SuperD0Ev @517
    _ZN2MR5SuperD1Ev @518
    _ZN2MR5SuperD2Ev @519
    _ZN2MR6Camera10MoveTargetERKN3glm6detail5tvec3IfEE @520
    _ZN2MR6Camera11MoveForwardERKN3glm6detail5tvec3IfEE @521
    _ZN2MR6Camera11SetPositionERKN3glm6detail5tvec3IfEE @522
    _ZN2MR6Camera11SetRotationERKN3glm6detail5tvec3IfEE @523
    _ZN2MR6Camera12SetDirectionERKN3glm6detail5tvec3IfEES6_S6_ @524
    _ZN2MR6Camera13SetAutoRecalcERKb @525
    _ZN2MR6Camera13SetCameraModeERKNS0_10CameraModeE @526
    _ZN2MR6Camera14CalcDirectionsEv @527
    _ZN2MR6Camera14CalcViewMatrixEv @528
    _ZN2MR6Camera14SetModelMatrixEPN3glm6detail7tmat4x4IfEE @529
    _ZN2MR6Camera15SetRenderTargetEPNS_12RenderTargetE @530
    _ZN2MR6Camera19SetCameraProjectionERKNS0_16CameraProjectionE @531
    _ZN2MR6Camera20CalcProjectionMatrixEv @532
    _ZN2MR6Camera3UseERKj @533
    _ZN2MR6Camera3YawERKf @534
    _ZN2MR6Camera4CalcEv @535
    _ZN2MR6Camera4MoveERKN3glm6detail5tvec3IfEE @536
    _ZN2MR6Camera4RollERKf @537
    _ZN2MR6Camera5PitchERKf @538
    _ZN2MR6Camera6MoveUpERKN3glm6detail5tvec3IfEE @539
    _ZN2MR6Camera7CalcMVPEv @540
    _ZN2MR6Camera8MoveLeftERKN3glm6detail5tvec3IfEE @541
    _ZN2MR6CameraC1ERKN3glm6detail5tvec3IfEES6_RKfS8_S8_S8_ @542
    _ZN2MR6CameraC1ERKS0_ @543
    _ZN2MR6CameraC2ERKN3glm6detail5tvec3IfEES6_RKfS8_S8_S8_ @544
    _ZN2MR6CameraC2ERKS0_ @545
    _ZN2MR6CameraD0Ev @546
    _ZN2MR6CameraD1Ev @547
    _ZN2MR6CameraD2Ev @548
    _ZN2MR6CameraaSERKS0_ @549
    _ZN2MR6Entity11SetMaterialEPNS_8MaterialE @550
    _ZN2MR6Entity12CreateEntityEPNS_5ModelE @551
    _ZN2MR6Entity4CopyEv @552
    _ZN2MR6Entity8SetModelEPNS_5ModelE @553
    _ZN2MR6EntityC1EPNS_5ModelE @554
    _ZN2MR6EntityC1Ev @555
    _ZN2MR6EntityC2EPNS_5ModelE @556
    _ZN2MR6EntityC2Ev @557
    _ZN2MR6EntityD0Ev @558
    _ZN2MR6EntityD1Ev @559
    _ZN2MR6EntityD2Ev @560
    _ZN2MR6Shader13CreateUniformERKSsRKNS_14IShaderUniform5TypesEPv @561
    _ZN2MR6Shader13DeleteUniformEPNS_14IShaderUniformE @562
    _ZN2MR6Shader15AttachSubShaderEPNS_10ISubShaderE @563
    _ZN2MR6Shader15DetachSubShaderEPNS_10ISubShaderE @564
    _ZN2MR6Shader15GetGPUProgramIdEv @565
    _ZN2MR6Shader17FindShaderUniformERKSs @566
    _ZN2MR6Shader18CreateUniformBlockERKSsRKiPSs @567
    _ZN2MR6Shader18DeleteUniformBlockEPNS_19IShaderUniformBlockE @568
    _ZN2MR6Shader19DetachAllSubShadersEv @569
    _ZN2MR6Shader22FindShaderUniformBlockERKSs @570
    _ZN2MR6Shader3UseEPNS_13RenderContextE @571
    _ZN2MR6Shader4LinkEPPNS_10ISubShaderERKj @572
    _ZN2MR6Shader4LinkEv @573
    _ZN2MR6Shader4LoadEv @574
    _ZN2MR6Shader6UnLoadEv @575
    _ZN2MR6ShaderC1EPNS_15ResourceManagerERKSsS4_ @576
    _ZN2MR6ShaderC2EPNS_15ResourceManagerERKSsS4_ @577
    _ZN2MR6ShaderD0Ev @578
    _ZN2MR6ShaderD1Ev @579
    _ZN2MR6ShaderD2Ev @580
    _ZN2MR7CubeMap15GetRenderTargetEv @581
    _ZN2MR7CubeMap15SetCapturePointERKN3glm6detail5tvec3IfEE @582
    _ZN2MR7CubeMap7CaptureEPNS_13RenderContextE @583
    _ZN2MR7CubeMapC1EPNS_15ResourceManagerERKSsS4_RKtS6_ @584
    _ZN2MR7CubeMapC2EPNS_15ResourceManagerERKSsS4_RKtS6_ @585
    _ZN2MR7CubeMapD0Ev @586
    _ZN2MR7CubeMapD1Ev @587
    _ZN2MR7CubeMapD2Ev @588
    _ZN2MR7Texture10UpdateDataERKiS2_S2_S2_S2_RKNS0_6FormatERKNS0_4TypeEPv @589
    _ZN2MR7Texture19CreateOpenGLTextureEPKhPKcRKiS6_RKNS_19GLTextureLoadFormatEPjRKNS_18GLTextureLoadFlagsE @590
    _ZN2MR7Texture19CreateOpenGLTextureEPKhRKiS4_RKNS_19GLTextureLoadFormatEPjRKNS_18GLTextureLoadFlagsE @591
    _ZN2MR7Texture19CreateOpenGLTextureEPjRKNS0_14InternalFormatERKiS6_RKNS0_6FormatERKNS0_4TypeE @592
    _ZN2MR7Texture4LoadEv @593
    _ZN2MR7Texture6UnLoadEv @594
    _ZN2MR7Texture7GetDataERKiRKNS0_6FormatERKNS0_4TypeEPv @595
    _ZN2MR7Texture7SetDataERKiRKNS0_14InternalFormatES2_S2_RKNS0_6FormatERKNS0_4TypeEPv @596
    _ZN2MR7Texture8FromFileEPNS_15ResourceManagerERKSsSs @597
    _ZN2MR7Texture9ResetInfoEv @598
    _ZN2MR7TextureC1EPNS_15ResourceManagerERKSsS4_ @599
    _ZN2MR7TextureC1EPNS_15ResourceManagerERKSsS4_RKj @600
    _ZN2MR7TextureC2EPNS_15ResourceManagerERKSsS4_ @601
    _ZN2MR7TextureC2EPNS_15ResourceManagerERKSsS4_RKj @602
    _ZN2MR7TextureD0Ev @603
    _ZN2MR7TextureD1Ev @604
    _ZN2MR7TextureD2Ev @605
    _ZN2MR8MaterialC1EPNS_15MaterialManagerERKSs @606
    _ZN2MR8MaterialC2EPNS_15MaterialManagerERKSs @607
    _ZN2MR8ModelLodC1EPPNS_4MeshERKt @608
    _ZN2MR8ModelLodC2EPPNS_4MeshERKt @609
    _ZN2MR8ModelLodD0Ev @610
    _ZN2MR8ModelLodD1Ev @611
    _ZN2MR8ModelLodD2Ev @612
    _ZN2MR8Resource10GetManagerEv @613
    _ZN2MR8Resource20GetResourceFreeStateEv @614
    _ZN2MR8Resource20SetResourceFreeStateERKb @615
    _ZN2MR8Resource6ReLoadEv @616
    _ZN2MR8Resource7GetNameEv @617
    _ZN2MR8Resource8IsLoadedEv @618
    _ZN2MR8Resource9GetSourceEv @619
    _ZN2MR8ResourceD0Ev @620
    _ZN2MR8ResourceD1Ev @621
    _ZN2MR8ResourceD2Ev @622
    _ZN2MR9ExceptionC1ERKSs @623
    _ZN2MR9ExceptionD0Ev @624
    _ZN2MR9ExceptionD1Ev @625
    _ZN2MR9LoadGLHDRERKSsRKiRKjRKNS_16GLTextureHDRFakeERKNS_18GLTextureLoadFlagsE @626
    _ZN2MR9LoadImageERKSsPiS2_PNS_19GLTextureLoadFormatERKS3_ @627
    _ZN2MR9ModelFile15ImportModelFileESsbb @628
    _ZN2MR9ModelFileC1Ev @629
    _ZN2MR9ModelFileC2Ev @630
    _ZN2MR9ResSource4FileESs @631
    _ZN2MR9ResSource5FlushEv @632
    _ZN2MR9ResSourceD0Ev @633
    _ZN2MR9ResSourceD1Ev @634
    _ZN2MR9ResSourceD2Ev @635
    _ZN2MR9ShadowMapC1EPNS_11LightSourceERKiS4_RKNS0_11TextureBitsE @636
    _ZN2MR9ShadowMapC2EPNS_11LightSourceERKiS4_RKNS0_11TextureBitsE @637
    _ZN2MR9SubShader11DefaultFragEv @638
    _ZN2MR9SubShader11DefaultVertEv @639
    _ZN2MR9SubShader14DefaultRTTFragEv @640
    _ZN2MR9SubShader14DefaultRTTVertEv @641
    _ZN2MR9SubShader17DefaultScreenFragEv @642
    _ZN2MR9SubShader17DefaultScreenVertEv @643
    _ZN2MR9SubShader21DefaultRTTDiscardFragEv @644
    _ZN2MR9SubShader21DefaultRTTDiscardVertEv @645
    _ZN2MR9SubShader7CompileERKSsRKNS_10ISubShader4TypeE @646
    _ZN2MR9SubShader7GetTypeEv @647
    _ZN2MR9SubShader8FromFileERKSsRKNS_10ISubShader4TypeE @648
    _ZN2MR9SubShader8GetGPUIdEv @649
    _ZN2MR9SubShaderC1ERKSsRKNS_10ISubShader4TypeE @650
    _ZN2MR9SubShaderC2ERKSsRKNS_10ISubShader4TypeE @651
    _ZN2MR9SubShaderD0Ev @652
    _ZN2MR9SubShaderD1Ev @653
    _ZN2MR9SubShaderD2Ev @654
    _ZN2MR9Transform19NormalizedDirectionEf @655
    _ZN2MR9Transform19NormalizedDirectionEfff @656
    _ZN2MR9Transform4CalcEv @657
    _ZN2MR9Transform6SetPosEPN3glm6detail5tvec3IfEE @658
    _ZN2MR9Transform6SetPosERKN3glm6detail5tvec3IfEE @659
    _ZN2MR9Transform6SetRotEPN3glm6detail5tvec3IfEE @660
    _ZN2MR9Transform6SetRotERKN3glm6detail5tvec3IfEE @661
    _ZN2MR9Transform8SetScaleEPN3glm6detail5tvec3IfEE @662
    _ZN2MR9Transform8SetScaleERKN3glm6detail5tvec3IfEE @663
    _ZN2MR9UIElement3AddEPS0_ @664
    _ZN2MR9UIElement4DrawEPNS_13RenderContextERKf @665
    _ZN2MR9UIElement6CreateEPNS_9UIManagerERKNS_4RectE @666
    _ZN2MR9UIElement6DeleteEPS0_ @667
    _ZN2MR9UIElement6RemoveEPS0_ @668
    _ZN2MR9UIElement7SetRectERKNS_4RectE @669
    _ZN2MR9UIElement8SetColorERKN3glm6detail5tvec4IfEE @670
    _ZN2MR9UIElement8SetScaleERKN3glm6detail5tvec2IfEE @671
    _ZN2MR9UIElementC1EPNS_9UIManagerERKNS_4RectE @672
    _ZN2MR9UIElementC2EPNS_9UIManagerERKNS_4RectE @673
    _ZN2MR9UIElementD0Ev @674
    _ZN2MR9UIElementD1Ev @675
    _ZN2MR9UIElementD2Ev @676
    _ZN2MR9UIManager13SetScreenRectERKN3glm6detail5tvec2IfEE @677
    _ZN2MR9UIManager4DrawEPNS_13RenderContextERKf @678
    _ZN2MR9UIManagerC1Ev @679
    _ZN2MR9UIManagerC2Ev @680
    _ZN2MR9UIManagerD0Ev @681
    _ZN2MR9UIManagerD1Ev @682
    _ZN2MR9UIManagerD2Ev @683
    _ZN3glm6detailmlIfEENS0_7tmat4x4IT_EERKS4_S6_ @684
    _ZNK2MR5EventIIPKcEE4CallEPvS2_ @685
    _ZNK2MR5EventIIPN3glm6detail7tmat4x4IfEEEE4CallEPvS5_ @686
    _ZNK2MR5EventIIPNS_12RenderTargetEEE4CallEPvS2_ @687
    _ZNK2MR5EventIIPNS_14GeometryBufferEEE4CallEPvS2_ @688
    _ZNK2MR5EventIIPNS_19InstancedDataBufferEEE4CallEPvS2_ @689
    _ZNK2MR5EventIIPNS_5ModelEEE4CallEPvS2_ @690
    _ZNK2MR5EventIIPNS_6CameraEEE4CallEPvS2_ @691
    _ZNK2MR5EventIIPNS_6EntityEEE4CallEPvS2_ @692
    _ZNK2MR5EventIIPNS_6ShaderEEE4CallEPvS2_ @693
    _ZNK2MR5EventIIPNS_7IShaderERKiEE4CallEPvS2_S4_ @694
    _ZNK2MR5EventIIPNS_8MaterialEEE4CallEPvS2_ @695
    _ZNK2MR5EventIIPPNS_14GeometryBufferEjEE4CallEPvS3_j @696
    _ZNK2MR5EventIIPPNS_8MaterialEjEE4CallEPvS3_j @697
    _ZNK2MR5EventIIPfEE4CallEPvS1_ @698
    _ZNK2MR5EventIIPvEE4CallES1_S1_ @699
    _ZNK2MR5EventIIRKN3glm6detail5tvec2IfEEEE4CallEPvS6_ @700
    _ZNK2MR5EventIIRKN3glm6detail5tvec3IfEEEE4CallEPvS6_ @701
    _ZNK2MR5EventIIRKN3glm6detail5tvec4IfEEEE4CallEPvS6_ @702
    _ZNK2MR5EventIIRKNS_14GeometryBuffer8DrawModeEEE4CallEPvS4_ @703
    _ZNK2MR5EventIIRKNS_15TextureSettings11CompareFuncEEE4CallEPvS4_ @704
    _ZNK2MR5EventIIRKNS_15TextureSettings11CompareModeEEE4CallEPvS4_ @705
    _ZNK2MR5EventIIRKNS_15TextureSettings4WrapEEE4CallEPvS4_ @706
    _ZNK2MR5EventIIRKNS_15TextureSettings9MagFilterEEE4CallEPvS4_ @707
    _ZNK2MR5EventIIRKNS_15TextureSettings9MinFilterEEE4CallEPvS4_ @708
    _ZNK2MR5EventIIRKNS_4RectEEE4CallEPvS3_ @709
    _ZNK2MR5EventIIRKNS_6Camera10CameraModeEEE4CallEPvS4_ @710
    _ZNK2MR5EventIIRKNS_6Camera16CameraProjectionEEE4CallEPvS4_ @711
    _ZNK2MR5EventIIRKSsEE4CallEPvS2_ @712
    _ZNK2MR5EventIIRKSsRKNS_10ISubShader4TypeEEE4CallEPvS2_S6_ @713
    _ZNK2MR5EventIIRKbEE4CallEPvS2_ @714
    _ZNK2MR5EventIIRKdS2_EE4CallEPvS2_S2_ @715
    _ZNK2MR5EventIIRKfEE4CallEPvS2_ @716
    _ZNK2MR5EventIIRKiEE4CallEPvS2_ @717
    _ZNK2MR5EventIIRKiRKNS_7Texture14InternalFormatES2_S2_RKNS3_6FormatERKNS3_4TypeEPvEE4CallESD_S2_S6_S2_S2_S9_SC_SD_ @718
    _ZNK2MR5EventIIRKiS2_EE4CallEPvS2_S2_ @719
    _ZNK2MR5EventIIRKiS2_S2_EE4CallEPvS2_S2_S2_ @720
    _ZNK2MR5EventIIRKiS2_S2_S2_EE4CallEPvS2_S2_S2_S2_ @721
    _ZNK2MR5EventIIRKiS2_S2_S2_S2_RKNS_7Texture6FormatERKNS3_4TypeEPvEE4CallESA_S2_S2_S2_S2_S2_S6_S9_SA_ @722
    _ZNK2MR5EventIIRKjEE4CallEPvS2_ @723
    _ZNK2MR5EventIISt10shared_ptrINS_15TextureSettingsEEEE4CallEPvS3_ @724
    _ZNK2MR5EventIIbEE4CallEPvb @725
    _ZNSt10shared_ptrIN2MR15TextureSettingsEED1Ev @726
    _ZNSt12__shared_ptrIN2MR15TextureSettingsELN9__gnu_cxx12_Lock_policyE1EED2Ev @727
    _ZNSt15_Sp_counted_ptrIPN2MR15TextureSettingsELN9__gnu_cxx12_Lock_policyE1EE10_M_destroyEv @728
    _ZNSt15_Sp_counted_ptrIPN2MR15TextureSettingsELN9__gnu_cxx12_Lock_policyE1EE10_M_disposeEv @729
    _ZNSt15_Sp_counted_ptrIPN2MR15TextureSettingsELN9__gnu_cxx12_Lock_policyE1EE14_M_get_deleterERKSt9type_info @730
    _ZNSt15_Sp_counted_ptrIPN2MR15TextureSettingsELN9__gnu_cxx12_Lock_policyE1EED0Ev @731
    _ZNSt15_Sp_counted_ptrIPN2MR15TextureSettingsELN9__gnu_cxx12_Lock_policyE1EED1Ev @732
    _ZNSt16_Sp_counted_baseILN9__gnu_cxx12_Lock_policyE1EE10_M_destroyEv @733
    _ZNSt16_Sp_counted_baseILN9__gnu_cxx12_Lock_policyE1EE10_M_releaseEv @734
    _ZNSt16_Sp_counted_baseILN9__gnu_cxx12_Lock_policyE1EED0Ev @735
    _ZNSt16_Sp_counted_baseILN9__gnu_cxx12_Lock_policyE1EED1Ev @736
    _ZNSt6vectorIN2MR10_DrawParamESaIS1_EE19_M_emplace_back_auxIIS1_EEEvDpOT_ @737
    _ZNSt6vectorIN3glm6detail7tmat4x4IfEESaIS3_EE19_M_emplace_back_auxIIRKS3_EEEvDpOT_ @738
    _ZNSt6vectorIPFvPvPKcESaIS4_EE19_M_emplace_back_auxIIRKS4_EEEvDpOT_ @739
    _ZNSt6vectorIPFvPvPN2MR12RenderTargetEESaIS5_EE19_M_emplace_back_auxIIRKS5_EEEvDpOT_ @740
    _ZNSt6vectorIPFvPvPN2MR14GeometryBufferEESaIS5_EE19_M_emplace_back_auxIIRKS5_EEEvDpOT_ @741
    _ZNSt6vectorIPFvPvPN2MR19InstancedDataBufferEESaIS5_EE19_M_emplace_back_auxIIRKS5_EEEvDpOT_ @742
    _ZNSt6vectorIPFvPvPN2MR5ModelEESaIS5_EE19_M_emplace_back_auxIIRKS5_EEEvDpOT_ @743
    _ZNSt6vectorIPFvPvPN2MR6CameraEESaIS5_EE19_M_emplace_back_auxIIRKS5_EEEvDpOT_ @744
    _ZNSt6vectorIPFvPvPN2MR6EntityEESaIS5_EE19_M_emplace_back_auxIIRKS5_EEEvDpOT_ @745
    _ZNSt6vectorIPFvPvPN2MR6ShaderEESaIS5_EE19_M_emplace_back_auxIIRKS5_EEEvDpOT_ @746
    _ZNSt6vectorIPFvPvPN2MR7IShaderERKiESaIS7_EE19_M_emplace_back_auxIIRKS7_EEEvDpOT_ @747
    _ZNSt6vectorIPFvPvPN2MR8MaterialEESaIS5_EE19_M_emplace_back_auxIIRKS5_EEEvDpOT_ @748
    _ZNSt6vectorIPFvPvPN3glm6detail7tmat4x4IfEEESaIS7_EE19_M_emplace_back_auxIIRKS7_EEEvDpOT_ @749
    _ZNSt6vectorIPFvPvPPN2MR14GeometryBufferEjESaIS6_EE19_M_emplace_back_auxIIRKS6_EEEvDpOT_ @750
    _ZNSt6vectorIPFvPvPPN2MR8MaterialEjESaIS6_EE19_M_emplace_back_auxIIRKS6_EEEvDpOT_ @751
    _ZNSt6vectorIPFvPvPfESaIS3_EE19_M_emplace_back_auxIIRKS3_EEEvDpOT_ @752
    _ZNSt6vectorIPFvPvRKN2MR14GeometryBuffer8DrawModeEESaIS7_EE19_M_emplace_back_auxIIRKS7_EEEvDpOT_ @753
    _ZNSt6vectorIPFvPvRKN2MR15TextureSettings11CompareFuncEESaIS7_EE19_M_emplace_back_auxIIRKS7_EEEvDpOT_ @754
    _ZNSt6vectorIPFvPvRKN2MR15TextureSettings11CompareModeEESaIS7_EE19_M_emplace_back_auxIIRKS7_EEEvDpOT_ @755
    _ZNSt6vectorIPFvPvRKN2MR15TextureSettings4WrapEESaIS7_EE19_M_emplace_back_auxIIRKS7_EEEvDpOT_ @756
    _ZNSt6vectorIPFvPvRKN2MR15TextureSettings9MagFilterEESaIS7_EE19_M_emplace_back_auxIIRKS7_EEEvDpOT_ @757
    _ZNSt6vectorIPFvPvRKN2MR15TextureSettings9MinFilterEESaIS7_EE19_M_emplace_back_auxIIRKS7_EEEvDpOT_ @758
    _ZNSt6vectorIPFvPvRKN2MR4RectEESaIS6_EE19_M_emplace_back_auxIIRKS6_EEEvDpOT_ @759
    _ZNSt6vectorIPFvPvRKN2MR6Camera10CameraModeEESaIS7_EE19_M_emplace_back_auxIIRKS7_EEEvDpOT_ @760
    _ZNSt6vectorIPFvPvRKN2MR6Camera16CameraProjectionEESaIS7_EE19_M_emplace_back_auxIIRKS7_EEEvDpOT_ @761
    _ZNSt6vectorIPFvPvRKN3glm6detail5tvec2IfEEESaIS8_EE19_M_emplace_back_auxIIRKS8_EEEvDpOT_ @762
    _ZNSt6vectorIPFvPvRKN3glm6detail5tvec3IfEEESaIS8_EE19_M_emplace_back_auxIIRKS8_EEEvDpOT_ @763
    _ZNSt6vectorIPFvPvRKN3glm6detail5tvec4IfEEESaIS8_EE19_M_emplace_back_auxIIRKS8_EEEvDpOT_ @764
    _ZNSt6vectorIPFvPvRKSsESaIS4_EE19_M_emplace_back_auxIIRKS4_EEEvDpOT_ @765
    _ZNSt6vectorIPFvPvRKSsRKN2MR10ISubShader4TypeEESaIS9_EE19_M_emplace_back_auxIIRKS9_EEEvDpOT_ @766
    _ZNSt6vectorIPFvPvRKbESaIS4_EE19_M_emplace_back_auxIIRKS4_EEEvDpOT_ @767
    _ZNSt6vectorIPFvPvRKdS2_ESaIS4_EE19_M_emplace_back_auxIIRKS4_EEEvDpOT_ @768
    _ZNSt6vectorIPFvPvRKfESaIS4_EE19_M_emplace_back_auxIIRKS4_EEEvDpOT_ @769
    _ZNSt6vectorIPFvPvRKiESaIS4_EE19_M_emplace_back_auxIIRKS4_EEEvDpOT_ @770
    _ZNSt6vectorIPFvPvRKiRKN2MR7Texture14InternalFormatES2_S2_RKNS4_6FormatERKNS4_4TypeES0_ESaISF_EE19_M_emplace_back_auxIIRKSF_EEEvDpOT_ @771
    _ZNSt6vectorIPFvPvRKiS2_ESaIS4_EE19_M_emplace_back_auxIIRKS4_EEEvDpOT_ @772
    _ZNSt6vectorIPFvPvRKiS2_S2_ESaIS4_EE19_M_emplace_back_auxIIRKS4_EEEvDpOT_ @773
    _ZNSt6vectorIPFvPvRKiS2_S2_S2_ESaIS4_EE19_M_emplace_back_auxIIRKS4_EEEvDpOT_ @774
    _ZNSt6vectorIPFvPvRKiS2_S2_S2_S2_RKN2MR7Texture6FormatERKNS4_4TypeES0_ESaISC_EE19_M_emplace_back_auxIIRKSC_EEEvDpOT_ @775
    _ZNSt6vectorIPFvPvRKjESaIS4_EE19_M_emplace_back_auxIIRKS4_EEEvDpOT_ @776
    _ZNSt6vectorIPFvPvS0_ESaIS2_EE19_M_emplace_back_auxIIRKS2_EEEvDpOT_ @777
    _ZNSt6vectorIPFvPvSt10shared_ptrIN2MR15TextureSettingsEEESaIS6_EE19_M_emplace_back_auxIIRKS6_EEEvDpOT_ @778
    _ZNSt6vectorIPFvPvbESaIS2_EE19_M_emplace_back_auxIIRKS2_EEEvDpOT_ @779
    _ZNSt6vectorIPN2MR10ISubShaderESaIS2_EE19_M_emplace_back_auxIIRKS2_EEEvDpOT_ @780
    _ZNSt6vectorIPN2MR12MaterialPassESaIS2_EE19_M_emplace_back_auxIIRKS2_EEEvDpOT_ @781
    _ZNSt6vectorIPN2MR12TextureArrayESaIS2_EE19_M_emplace_back_auxIIRKS2_EEEvDpOT_ @782
    _ZNSt6vectorIPN2MR14IShaderUniformESaIS2_EE19_M_emplace_back_auxIIS2_EEEvDpOT_ @783
    _ZNSt6vectorIPN2MR19IShaderUniformBlockESaIS2_EE19_M_emplace_back_auxIIS2_EEEvDpOT_ @784
    _ZNSt6vectorIPN2MR6CameraESaIS2_EE19_M_emplace_back_auxIIRKS2_EEEvDpOT_ @785
    _ZNSt6vectorIPN2MR6EntityESaIS2_EE19_M_emplace_back_auxIIRKS2_EEEvDpOT_ @786
    _ZNSt6vectorIPN2MR8ModelLodESaIS2_EE19_M_emplace_back_auxIIRKS2_EEEvDpOT_ @787
    _ZNSt6vectorIPN2MR8ResourceESaIS2_EE19_M_emplace_back_auxIIRKS2_EEEvDpOT_ @788
    _ZNSt6vectorIPN2MR8ResourceESaIS2_EE19_M_emplace_back_auxIIS2_EEEvDpOT_ @789
    _ZNSt6vectorIPN2MR8ResourceESaIS2_EED1Ev @790
    _ZNSt6vectorIPN2MR9UIElementESaIS2_EE19_M_emplace_back_auxIIRKS2_EEEvDpOT_ @791
    _ZNSt6vectorIPN3glm6detail7tmat4x4IfEESaIS4_EE19_M_emplace_back_auxIIS4_EEEvDpOT_ @792
    _ZNSt6vectorIPN3glm6detail7tmat4x4IfEESaIS4_EED1Ev @793
    _ZSt6__findIN9__gnu_cxx17__normal_iteratorIPPN2MR6CameraESt6vectorIS4_SaIS4_EEEES4_ET_SA_SA_RKT0_St26random_access_iterator_tag @794
    _ZSt6__findIN9__gnu_cxx17__normal_iteratorIPPN2MR6EntityESt6vectorIS4_SaIS4_EEEES4_ET_SA_SA_RKT0_St26random_access_iterator_tag @795
    _ZSt6__findIN9__gnu_cxx17__normal_iteratorIPPN2MR9UIElementESt6vectorIS4_SaIS4_EEEES4_ET_SA_SA_RKT0_St26random_access_iterator_tag @796
    _ZSt9to_stringi @797
    _ZStplIcSt11char_traitsIcESaIcEESbIT_T0_T1_EOS6_PKS3_ @798
    _ZStplIcSt11char_traitsIcESaIcEESbIT_T0_T1_EOS6_RKS6_ @799
    _ZStplIcSt11char_traitsIcESaIcEESbIT_T0_T1_EPKS3_OS6_ @800
    _ZStplIcSt11char_traitsIcESaIcEESbIT_T0_T1_EPKS3_RKS6_ @801
    _ZTCN2MR7CubeMapE40_NS_7TextureE @802 DATA
    _ZTIN2MR10ISubShaderE @803 DATA
    _ZTIN2MR12MaterialPassE @804 DATA
    _ZTIN2MR12ModelManagerE @805 DATA
    _ZTIN2MR12SceneManagerE @806 DATA
    _ZTIN2MR12TextureArrayE @807 DATA
    _ZTIN2MR13FileResSourceE @808 DATA
    _ZTIN2MR13RenderContextE @809 DATA
    _ZTIN2MR13ShaderManagerE @810 DATA
    _ZTIN2MR13ShaderUniformE @811 DATA
    _ZTIN2MR14GeometryBufferE @812 DATA
    _ZTIN2MR14IShaderUniformE @813 DATA
    _ZTIN2MR14TextureManagerE @814 DATA
    _ZTIN2MR15ResourceManagerE @815 DATA
    _ZTIN2MR15TextureSettingsE @816 DATA
    _ZTIN2MR17InstancedDataTypeE @817 DATA
    _ZTIN2MR18ShaderUniformBlockE @818 DATA
    _ZTIN2MR19IShaderUniformBlockE @819 DATA
    _ZTIN2MR4MeshE @820 DATA
    _ZTIN2MR5EventIIPKcEEE @821 DATA
    _ZTIN2MR5EventIIPN3glm6detail7tmat4x4IfEEEEE @822 DATA
    _ZTIN2MR5EventIIPNS_12RenderTargetEEEE @823 DATA
    _ZTIN2MR5EventIIPNS_14GeometryBufferEEEE @824 DATA
    _ZTIN2MR5EventIIPNS_19InstancedDataBufferEEEE @825 DATA
    _ZTIN2MR5EventIIPNS_5ModelEEEE @826 DATA
    _ZTIN2MR5EventIIPNS_6CameraEEEE @827 DATA
    _ZTIN2MR5EventIIPNS_6EntityEEEE @828 DATA
    _ZTIN2MR5EventIIPNS_6ShaderEEEE @829 DATA
    _ZTIN2MR5EventIIPNS_7IShaderERKiEEE @830 DATA
    _ZTIN2MR5EventIIPNS_8MaterialEEEE @831 DATA
    _ZTIN2MR5EventIIPPNS_14GeometryBufferEjEEE @832 DATA
    _ZTIN2MR5EventIIPPNS_8MaterialEjEEE @833 DATA
    _ZTIN2MR5EventIIPfEEE @834 DATA
    _ZTIN2MR5EventIIPvEEE @835 DATA
    _ZTIN2MR5EventIIRKN3glm6detail5tvec2IfEEEEE @836 DATA
    _ZTIN2MR5EventIIRKN3glm6detail5tvec3IfEEEEE @837 DATA
    _ZTIN2MR5EventIIRKN3glm6detail5tvec4IfEEEEE @838 DATA
    _ZTIN2MR5EventIIRKNS_14GeometryBuffer8DrawModeEEEE @839 DATA
    _ZTIN2MR5EventIIRKNS_15TextureSettings11CompareFuncEEEE @840 DATA
    _ZTIN2MR5EventIIRKNS_15TextureSettings11CompareModeEEEE @841 DATA
    _ZTIN2MR5EventIIRKNS_15TextureSettings4WrapEEEE @842 DATA
    _ZTIN2MR5EventIIRKNS_15TextureSettings9MagFilterEEEE @843 DATA
    _ZTIN2MR5EventIIRKNS_15TextureSettings9MinFilterEEEE @844 DATA
    _ZTIN2MR5EventIIRKNS_4RectEEEE @845 DATA
    _ZTIN2MR5EventIIRKNS_6Camera10CameraModeEEEE @846 DATA
    _ZTIN2MR5EventIIRKNS_6Camera16CameraProjectionEEEE @847 DATA
    _ZTIN2MR5EventIIRKSsEEE @848 DATA
    _ZTIN2MR5EventIIRKSsRKNS_10ISubShader4TypeEEEE @849 DATA
    _ZTIN2MR5EventIIRKbEEE @850 DATA
    _ZTIN2MR5EventIIRKdS2_EEE @851 DATA
    _ZTIN2MR5EventIIRKfEEE @852 DATA
    _ZTIN2MR5EventIIRKiEEE @853 DATA
    _ZTIN2MR5EventIIRKiRKNS_7Texture14InternalFormatES2_S2_RKNS3_6FormatERKNS3_4TypeEPvEEE @854 DATA
    _ZTIN2MR5EventIIRKiS2_EEE @855 DATA
    _ZTIN2MR5EventIIRKiS2_S2_EEE @856 DATA
    _ZTIN2MR5EventIIRKiS2_S2_S2_EEE @857 DATA
    _ZTIN2MR5EventIIRKiS2_S2_S2_S2_RKNS_7Texture6FormatERKNS3_4TypeEPvEEE @858 DATA
    _ZTIN2MR5EventIIRKjEEE @859 DATA
    _ZTIN2MR5EventIISt10shared_ptrINS_15TextureSettingsEEEEE @860 DATA
    _ZTIN2MR5EventIIbEEE @861 DATA
    _ZTIN2MR5ModelE @862 DATA
    _ZTIN2MR5SuperE @863 DATA
    _ZTIN2MR6CameraE @864 DATA
    _ZTIN2MR6EntityE @865 DATA
    _ZTIN2MR6ShaderE @866 DATA
    _ZTIN2MR7CubeMapE @867 DATA
    _ZTIN2MR7IShaderE @868 DATA
    _ZTIN2MR7TextureE @869 DATA
    _ZTIN2MR8CopyableIPNS_14GeometryBufferEEE @870 DATA
    _ZTIN2MR8CopyableIPNS_6EntityEEE @871 DATA
    _ZTIN2MR8CopyableISt10shared_ptrINS_15TextureSettingsEEEE @872 DATA
    _ZTIN2MR8ModelLodE @873 DATA
    _ZTIN2MR8ResourceE @874 DATA
    _ZTIN2MR9ExceptionE @875 DATA
    _ZTIN2MR9ResSourceE @876 DATA
    _ZTIN2MR9SubShaderE @877 DATA
    _ZTIN2MR9UIElementE @878 DATA
    _ZTIN2MR9UIManagerE @879 DATA
    _ZTIN9__gnu_cxx7__mutexE @880 DATA
    _ZTISt11_Mutex_baseILN9__gnu_cxx12_Lock_policyE1EE @881 DATA
    _ZTISt15_Sp_counted_ptrIPN2MR15TextureSettingsELN9__gnu_cxx12_Lock_policyE1EE @882 DATA
    _ZTISt16_Sp_counted_baseILN9__gnu_cxx12_Lock_policyE1EE @883 DATA
    _ZTISt9exception @884 DATA
    _ZTSN2MR10ISubShaderE @885 DATA
    _ZTSN2MR12MaterialPassE @886 DATA
    _ZTSN2MR12ModelManagerE @887 DATA
    _ZTSN2MR12SceneManagerE @888 DATA
    _ZTSN2MR12TextureArrayE @889 DATA
    _ZTSN2MR13FileResSourceE @890 DATA
    _ZTSN2MR13RenderContextE @891 DATA
    _ZTSN2MR13ShaderManagerE @892 DATA
    _ZTSN2MR13ShaderUniformE @893 DATA
    _ZTSN2MR14GeometryBufferE @894 DATA
    _ZTSN2MR14IShaderUniformE @895 DATA
    _ZTSN2MR14TextureManagerE @896 DATA
    _ZTSN2MR15ResourceManagerE @897 DATA
    _ZTSN2MR15TextureSettingsE @898 DATA
    _ZTSN2MR17InstancedDataTypeE @899 DATA
    _ZTSN2MR18ShaderUniformBlockE @900 DATA
    _ZTSN2MR19IShaderUniformBlockE @901 DATA
    _ZTSN2MR4MeshE @902 DATA
    _ZTSN2MR5EventIIPKcEEE @903 DATA
    _ZTSN2MR5EventIIPN3glm6detail7tmat4x4IfEEEEE @904 DATA
    _ZTSN2MR5EventIIPNS_12RenderTargetEEEE @905 DATA
    _ZTSN2MR5EventIIPNS_14GeometryBufferEEEE @906 DATA
    _ZTSN2MR5EventIIPNS_19InstancedDataBufferEEEE @907 DATA
    _ZTSN2MR5EventIIPNS_5ModelEEEE @908 DATA
    _ZTSN2MR5EventIIPNS_6CameraEEEE @909 DATA
    _ZTSN2MR5EventIIPNS_6EntityEEEE @910 DATA
    _ZTSN2MR5EventIIPNS_6ShaderEEEE @911 DATA
    _ZTSN2MR5EventIIPNS_7IShaderERKiEEE @912 DATA
    _ZTSN2MR5EventIIPNS_8MaterialEEEE @913 DATA
    _ZTSN2MR5EventIIPPNS_14GeometryBufferEjEEE @914 DATA
    _ZTSN2MR5EventIIPPNS_8MaterialEjEEE @915 DATA
    _ZTSN2MR5EventIIPfEEE @916 DATA
    _ZTSN2MR5EventIIPvEEE @917 DATA
    _ZTSN2MR5EventIIRKN3glm6detail5tvec2IfEEEEE @918 DATA
    _ZTSN2MR5EventIIRKN3glm6detail5tvec3IfEEEEE @919 DATA
    _ZTSN2MR5EventIIRKN3glm6detail5tvec4IfEEEEE @920 DATA
    _ZTSN2MR5EventIIRKNS_14GeometryBuffer8DrawModeEEEE @921 DATA
    _ZTSN2MR5EventIIRKNS_15TextureSettings11CompareFuncEEEE @922 DATA
    _ZTSN2MR5EventIIRKNS_15TextureSettings11CompareModeEEEE @923 DATA
    _ZTSN2MR5EventIIRKNS_15TextureSettings4WrapEEEE @924 DATA
    _ZTSN2MR5EventIIRKNS_15TextureSettings9MagFilterEEEE @925 DATA
    _ZTSN2MR5EventIIRKNS_15TextureSettings9MinFilterEEEE @926 DATA
    _ZTSN2MR5EventIIRKNS_4RectEEEE @927 DATA
    _ZTSN2MR5EventIIRKNS_6Camera10CameraModeEEEE @928 DATA
    _ZTSN2MR5EventIIRKNS_6Camera16CameraProjectionEEEE @929 DATA
    _ZTSN2MR5EventIIRKSsEEE @930 DATA
    _ZTSN2MR5EventIIRKSsRKNS_10ISubShader4TypeEEEE @931 DATA
    _ZTSN2MR5EventIIRKbEEE @932 DATA
    _ZTSN2MR5EventIIRKdS2_EEE @933 DATA
    _ZTSN2MR5EventIIRKfEEE @934 DATA
    _ZTSN2MR5EventIIRKiEEE @935 DATA
    _ZTSN2MR5EventIIRKiRKNS_7Texture14InternalFormatES2_S2_RKNS3_6FormatERKNS3_4TypeEPvEEE @936 DATA
    _ZTSN2MR5EventIIRKiS2_EEE @937 DATA
    _ZTSN2MR5EventIIRKiS2_S2_EEE @938 DATA
    _ZTSN2MR5EventIIRKiS2_S2_S2_EEE @939 DATA
    _ZTSN2MR5EventIIRKiS2_S2_S2_S2_RKNS_7Texture6FormatERKNS3_4TypeEPvEEE @940 DATA
    _ZTSN2MR5EventIIRKjEEE @941 DATA
    _ZTSN2MR5EventIISt10shared_ptrINS_15TextureSettingsEEEEE @942 DATA
    _ZTSN2MR5EventIIbEEE @943 DATA
    _ZTSN2MR5ModelE @944 DATA
    _ZTSN2MR5SuperE @945 DATA
    _ZTSN2MR6CameraE @946 DATA
    _ZTSN2MR6EntityE @947 DATA
    _ZTSN2MR6ShaderE @948 DATA
    _ZTSN2MR7CubeMapE @949 DATA
    _ZTSN2MR7IShaderE @950 DATA
    _ZTSN2MR7TextureE @951 DATA
    _ZTSN2MR8CopyableIPNS_14GeometryBufferEEE @952 DATA
    _ZTSN2MR8CopyableIPNS_6EntityEEE @953 DATA
    _ZTSN2MR8CopyableISt10shared_ptrINS_15TextureSettingsEEEE @954 DATA
    _ZTSN2MR8ModelLodE @955 DATA
    _ZTSN2MR8ResourceE @956 DATA
    _ZTSN2MR9ExceptionE @957 DATA
    _ZTSN2MR9ResSourceE @958 DATA
    _ZTSN2MR9SubShaderE @959 DATA
    _ZTSN2MR9UIElementE @960 DATA
    _ZTSN2MR9UIManagerE @961 DATA
    _ZTSN9__gnu_cxx7__mutexE @962 DATA
    _ZTSSt11_Mutex_baseILN9__gnu_cxx12_Lock_policyE1EE @963 DATA
    _ZTSSt15_Sp_counted_ptrIPN2MR15TextureSettingsELN9__gnu_cxx12_Lock_policyE1EE @964 DATA
    _ZTSSt16_Sp_counted_baseILN9__gnu_cxx12_Lock_policyE1EE @965 DATA
    _ZTSSt9exception @966 DATA
    _ZTTN2MR12ModelManagerE @967 DATA
    _ZTTN2MR13FileResSourceE @968 DATA
    _ZTTN2MR13ShaderManagerE @969 DATA
    _ZTTN2MR14TextureManagerE @970 DATA
    _ZTTN2MR5ModelE @971 DATA
    _ZTTN2MR6ShaderE @972 DATA
    _ZTTN2MR7CubeMapE @973 DATA
    _ZTTN2MR7TextureE @974 DATA
    _ZTVN2MR10ISubShaderE @975 DATA
    _ZTVN2MR12MaterialPassE @976 DATA
    _ZTVN2MR12ModelManagerE @977 DATA
    _ZTVN2MR12SceneManagerE @978 DATA
    _ZTVN2MR12TextureArrayE @979 DATA
    _ZTVN2MR13FileResSourceE @980 DATA
    _ZTVN2MR13RenderContextE @981 DATA
    _ZTVN2MR13ShaderManagerE @982 DATA
    _ZTVN2MR13ShaderUniformE @983 DATA
    _ZTVN2MR14GeometryBufferE @984 DATA
    _ZTVN2MR14IShaderUniformE @985 DATA
    _ZTVN2MR14TextureManagerE @986 DATA
    _ZTVN2MR15ResourceManagerE @987 DATA
    _ZTVN2MR15TextureSettingsE @988 DATA
    _ZTVN2MR17InstancedDataTypeE @989 DATA
    _ZTVN2MR18ShaderUniformBlockE @990 DATA
    _ZTVN2MR19IShaderUniformBlockE @991 DATA
    _ZTVN2MR4MeshE @992 DATA
    _ZTVN2MR5EventIIPKcEEE @993 DATA
    _ZTVN2MR5EventIIPN3glm6detail7tmat4x4IfEEEEE @994 DATA
    _ZTVN2MR5EventIIPNS_12RenderTargetEEEE @995 DATA
    _ZTVN2MR5EventIIPNS_14GeometryBufferEEEE @996 DATA
    _ZTVN2MR5EventIIPNS_19InstancedDataBufferEEEE @997 DATA
    _ZTVN2MR5EventIIPNS_5ModelEEEE @998 DATA
    _ZTVN2MR5EventIIPNS_6CameraEEEE @999 DATA
    _ZTVN2MR5EventIIPNS_6EntityEEEE @1000 DATA
    _ZTVN2MR5EventIIPNS_6ShaderEEEE @1001 DATA
    _ZTVN2MR5EventIIPNS_7IShaderERKiEEE @1002 DATA
    _ZTVN2MR5EventIIPNS_8MaterialEEEE @1003 DATA
    _ZTVN2MR5EventIIPPNS_14GeometryBufferEjEEE @1004 DATA
    _ZTVN2MR5EventIIPPNS_8MaterialEjEEE @1005 DATA
    _ZTVN2MR5EventIIPfEEE @1006 DATA
    _ZTVN2MR5EventIIPvEEE @1007 DATA
    _ZTVN2MR5EventIIRKN3glm6detail5tvec2IfEEEEE @1008 DATA
    _ZTVN2MR5EventIIRKN3glm6detail5tvec3IfEEEEE @1009 DATA
    _ZTVN2MR5EventIIRKN3glm6detail5tvec4IfEEEEE @1010 DATA
    _ZTVN2MR5EventIIRKNS_14GeometryBuffer8DrawModeEEEE @1011 DATA
    _ZTVN2MR5EventIIRKNS_15TextureSettings11CompareFuncEEEE @1012 DATA
    _ZTVN2MR5EventIIRKNS_15TextureSettings11CompareModeEEEE @1013 DATA
    _ZTVN2MR5EventIIRKNS_15TextureSettings4WrapEEEE @1014 DATA
    _ZTVN2MR5EventIIRKNS_15TextureSettings9MagFilterEEEE @1015 DATA
    _ZTVN2MR5EventIIRKNS_15TextureSettings9MinFilterEEEE @1016 DATA
    _ZTVN2MR5EventIIRKNS_4RectEEEE @1017 DATA
    _ZTVN2MR5EventIIRKNS_6Camera10CameraModeEEEE @1018 DATA
    _ZTVN2MR5EventIIRKNS_6Camera16CameraProjectionEEEE @1019 DATA
    _ZTVN2MR5EventIIRKSsEEE @1020 DATA
    _ZTVN2MR5EventIIRKSsRKNS_10ISubShader4TypeEEEE @1021 DATA
    _ZTVN2MR5EventIIRKbEEE @1022 DATA
    _ZTVN2MR5EventIIRKdS2_EEE @1023 DATA
    _ZTVN2MR5EventIIRKfEEE @1024 DATA
    _ZTVN2MR5EventIIRKiEEE @1025 DATA
    _ZTVN2MR5EventIIRKiRKNS_7Texture14InternalFormatES2_S2_RKNS3_6FormatERKNS3_4TypeEPvEEE @1026 DATA
    _ZTVN2MR5EventIIRKiS2_EEE @1027 DATA
    _ZTVN2MR5EventIIRKiS2_S2_EEE @1028 DATA
    _ZTVN2MR5EventIIRKiS2_S2_S2_EEE @1029 DATA
    _ZTVN2MR5EventIIRKiS2_S2_S2_S2_RKNS_7Texture6FormatERKNS3_4TypeEPvEEE @1030 DATA
    _ZTVN2MR5EventIIRKjEEE @1031 DATA
    _ZTVN2MR5EventIISt10shared_ptrINS_15TextureSettingsEEEEE @1032 DATA
    _ZTVN2MR5EventIIbEEE @1033 DATA
    _ZTVN2MR5ModelE @1034 DATA
    _ZTVN2MR5SuperE @1035 DATA
    _ZTVN2MR6CameraE @1036 DATA
    _ZTVN2MR6EntityE @1037 DATA
    _ZTVN2MR6ShaderE @1038 DATA
    _ZTVN2MR7CubeMapE @1039 DATA
    _ZTVN2MR7IShaderE @1040 DATA
    _ZTVN2MR7TextureE @1041 DATA
    _ZTVN2MR8CopyableIPNS_14GeometryBufferEEE @1042 DATA
    _ZTVN2MR8CopyableIPNS_6EntityEEE @1043 DATA
    _ZTVN2MR8CopyableISt10shared_ptrINS_15TextureSettingsEEEE @1044 DATA
    _ZTVN2MR8ModelLodE @1045 DATA
    _ZTVN2MR8ResourceE @1046 DATA
    _ZTVN2MR9ExceptionE @1047 DATA
    _ZTVN2MR9ResSourceE @1048 DATA
    _ZTVN2MR9SubShaderE @1049 DATA
    _ZTVN2MR9UIElementE @1050 DATA
    _ZTVN2MR9UIManagerE @1051 DATA
    _ZTVSt15_Sp_counted_ptrIPN2MR15TextureSettingsELN9__gnu_cxx12_Lock_policyE1EE @1052 DATA
    _ZTVSt16_Sp_counted_baseILN9__gnu_cxx12_Lock_policyE1EE @1053 DATA
    _ZThn4_N2MR13ShaderUniform14GetGPULocationEv @1054
    _ZThn4_N2MR13ShaderUniform3MapEPNS_7IShaderE @1055
    _ZThn4_N2MR13ShaderUniform7GetNameEv @1056
    _ZThn4_N2MR13ShaderUniform7GetTypeEv @1057
    _ZThn4_N2MR13ShaderUniform8GetValueEv @1058
    _ZThn4_N2MR13ShaderUniform8SetValueEPv @1059
    _ZThn4_N2MR13ShaderUniformD0Ev @1060
    _ZThn4_N2MR13ShaderUniformD1Ev @1061
    _ZThn4_N2MR18ShaderUniformBlock10BufferDataEPhRKjS3_ @1062
    _ZThn4_N2MR18ShaderUniformBlock12GetBlockSizeEv @1063
    _ZThn4_N2MR18ShaderUniformBlock14GetNumUniformsEv @1064
    _ZThn4_N2MR18ShaderUniformBlock15GetUniformNamesEv @1065
    _ZThn4_N2MR18ShaderUniformBlock20GetUniformGPUOffsetsEv @1066
    _ZThn4_N2MR18ShaderUniformBlock21GetUniformGPUIndeciesEv @1067
    _ZThn4_N2MR18ShaderUniformBlock3MapEPNS_7IShaderE @1068
    _ZThn4_N2MR18ShaderUniformBlock7GetDataEv @1069
    _ZThn4_N2MR18ShaderUniformBlock7GetNameEv @1070
    _ZThn4_N2MR18ShaderUniformBlockD0Ev @1071
    _ZThn4_N2MR18ShaderUniformBlockD1Ev @1072
    _ZThn4_N2MR6Shader13CreateUniformERKSsRKNS_14IShaderUniform5TypesEPv @1073
    _ZThn4_N2MR6Shader13DeleteUniformEPNS_14IShaderUniformE @1074
    _ZThn4_N2MR6Shader15AttachSubShaderEPNS_10ISubShaderE @1075
    _ZThn4_N2MR6Shader15DetachSubShaderEPNS_10ISubShaderE @1076
    _ZThn4_N2MR6Shader15GetGPUProgramIdEv @1077
    _ZThn4_N2MR6Shader17FindShaderUniformERKSs @1078
    _ZThn4_N2MR6Shader18CreateUniformBlockERKSsRKiPSs @1079
    _ZThn4_N2MR6Shader18DeleteUniformBlockEPNS_19IShaderUniformBlockE @1080
    _ZThn4_N2MR6Shader19DetachAllSubShadersEv @1081
    _ZThn4_N2MR6Shader22FindShaderUniformBlockERKSs @1082
    _ZThn4_N2MR6Shader3UseEPNS_13RenderContextE @1083
    _ZThn4_N2MR6Shader4LinkEPPNS_10ISubShaderERKj @1084
    _ZThn4_N2MR6Shader4LinkEv @1085
    _ZThn4_N2MR9SubShader7CompileERKSsRKNS_10ISubShader4TypeE @1086
    _ZThn4_N2MR9SubShader7GetTypeEv @1087
    _ZThn4_N2MR9SubShader8GetGPUIdEv @1088
    _ZThn4_N2MR9SubShaderD0Ev @1089
    _ZThn4_N2MR9SubShaderD1Ev @1090
    _ZTv0_n12_N2MR13FileResSource4ReadEPcj @1091
    _ZTv0_n16_N2MR13FileResSource5WriteEPcj @1092
    _ZTv0_n20_N2MR13FileResSource5FlushEv @1093
    _ZTv0_n24_N2MR13FileResSource4OpenEv @1094
    _ZTv0_n24_N2MR7CubeMapD0Ev @1095
    _ZTv0_n24_N2MR7CubeMapD1Ev @1096
    _ZTv0_n28_N2MR12ModelManager6CreateERKSsS2_ @1097
    _ZTv0_n28_N2MR13FileResSource5CloseEv @1098
    _ZTv0_n28_N2MR13ShaderManager6CreateERKSsS2_ @1099
    _ZTv0_n28_N2MR14TextureManager6CreateERKSsS2_ @1100
    _ZTv0_n28_N2MR5Model4LoadEv @1101
    _ZTv0_n28_N2MR6Shader4LoadEv @1102
    _ZTv0_n28_N2MR7Texture4LoadEv @1103
    _ZTv0_n32_N2MR13FileResSource4SizeEv @1104
    _ZTv0_n32_N2MR5Model6UnLoadEv @1105
    _ZTv0_n32_N2MR6Shader6UnLoadEv @1106
    _ZTv0_n32_N2MR7Texture6UnLoadEv @1107
    _ZTv0_n36_N2MR13FileResSourceD0Ev @1108
    _ZTv0_n36_N2MR13FileResSourceD1Ev @1109
    _ZTv0_n48_N2MR5ModelD0Ev @1110
    _ZTv0_n48_N2MR5ModelD1Ev @1111
    _ZTv0_n48_N2MR6ShaderD0Ev @1112
    _ZTv0_n48_N2MR6ShaderD1Ev @1113
    _ZTv0_n48_N2MR7CubeMapD0Ev @1114
    _ZTv0_n48_N2MR7CubeMapD1Ev @1115
    _ZTv0_n48_N2MR7TextureD0Ev @1116
    _ZTv0_n48_N2MR7TextureD1Ev @1117
    _ZZN2MR11MachineInfo28IsDirectStateAccessSupportedEvE5state @1118 DATA
    _ZZN2MR12ModelManager8InstanceEvE1m @1119 DATA
    _ZZN2MR13ShaderManager8InstanceEvE1m @1120 DATA
    _ZZN2MR14TextureManager8InstanceEvE1m @1121 DATA
    _ZZN2MR15MaterialManager8InstanceEvE1m @1122 DATA
    _ZZN2MR9UIManager8InstanceEvE1m @1123 DATA
    __GLEW_3DFX_multisample @1124 DATA
    __GLEW_3DFX_tbuffer @1125 DATA
    __GLEW_3DFX_texture_compression_FXT1 @1126 DATA
    __GLEW_AMD_blend_minmax_factor @1127 DATA
    __GLEW_AMD_conservative_depth @1128 DATA
    __GLEW_AMD_debug_output @1129 DATA
    __GLEW_AMD_depth_clamp_separate @1130 DATA
    __GLEW_AMD_draw_buffers_blend @1131 DATA
    __GLEW_AMD_multi_draw_indirect @1132 DATA
    __GLEW_AMD_name_gen_delete @1133 DATA
    __GLEW_AMD_performance_monitor @1134 DATA
    __GLEW_AMD_pinned_memory @1135 DATA
    __GLEW_AMD_query_buffer_object @1136 DATA
    __GLEW_AMD_sample_positions @1137 DATA
    __GLEW_AMD_seamless_cubemap_per_texture @1138 DATA
    __GLEW_AMD_shader_stencil_export @1139 DATA
    __GLEW_AMD_stencil_operation_extended @1140 DATA
    __GLEW_AMD_texture_texture4 @1141 DATA
    __GLEW_AMD_transform_feedback3_lines_triangles @1142 DATA
    __GLEW_AMD_vertex_shader_layer @1143 DATA
    __GLEW_AMD_vertex_shader_tessellator @1144 DATA
    __GLEW_AMD_vertex_shader_viewport_index @1145 DATA
    __GLEW_APPLE_aux_depth_stencil @1146 DATA
    __GLEW_APPLE_client_storage @1147 DATA
    __GLEW_APPLE_element_array @1148 DATA
    __GLEW_APPLE_fence @1149 DATA
    __GLEW_APPLE_float_pixels @1150 DATA
    __GLEW_APPLE_flush_buffer_range @1151 DATA
    __GLEW_APPLE_object_purgeable @1152 DATA
    __GLEW_APPLE_pixel_buffer @1153 DATA
    __GLEW_APPLE_rgb_422 @1154 DATA
    __GLEW_APPLE_row_bytes @1155 DATA
    __GLEW_APPLE_specular_vector @1156 DATA
    __GLEW_APPLE_texture_range @1157 DATA
    __GLEW_APPLE_transform_hint @1158 DATA
    __GLEW_APPLE_vertex_array_object @1159 DATA
    __GLEW_APPLE_vertex_array_range @1160 DATA
    __GLEW_APPLE_vertex_program_evaluators @1161 DATA
    __GLEW_APPLE_ycbcr_422 @1162 DATA
    __GLEW_ARB_ES2_compatibility @1163 DATA
    __GLEW_ARB_ES3_compatibility @1164 DATA
    __GLEW_ARB_arrays_of_arrays @1165 DATA
    __GLEW_ARB_base_instance @1166 DATA
    __GLEW_ARB_blend_func_extended @1167 DATA
    __GLEW_ARB_cl_event @1168 DATA
    __GLEW_ARB_clear_buffer_object @1169 DATA
    __GLEW_ARB_color_buffer_float @1170 DATA
    __GLEW_ARB_compatibility @1171 DATA
    __GLEW_ARB_compressed_texture_pixel_storage @1172 DATA
    __GLEW_ARB_compute_shader @1173 DATA
    __GLEW_ARB_conservative_depth @1174 DATA
    __GLEW_ARB_copy_buffer @1175 DATA
    __GLEW_ARB_copy_image @1176 DATA
    __GLEW_ARB_debug_output @1177 DATA
    __GLEW_ARB_depth_buffer_float @1178 DATA
    __GLEW_ARB_depth_clamp @1179 DATA
    __GLEW_ARB_depth_texture @1180 DATA
    __GLEW_ARB_draw_buffers @1181 DATA
    __GLEW_ARB_draw_buffers_blend @1182 DATA
    __GLEW_ARB_draw_elements_base_vertex @1183 DATA
    __GLEW_ARB_draw_indirect @1184 DATA
    __GLEW_ARB_draw_instanced @1185 DATA
    __GLEW_ARB_explicit_attrib_location @1186 DATA
    __GLEW_ARB_explicit_uniform_location @1187 DATA
    __GLEW_ARB_fragment_coord_conventions @1188 DATA
    __GLEW_ARB_fragment_layer_viewport @1189 DATA
    __GLEW_ARB_fragment_program @1190 DATA
    __GLEW_ARB_fragment_program_shadow @1191 DATA
    __GLEW_ARB_fragment_shader @1192 DATA
    __GLEW_ARB_framebuffer_no_attachments @1193 DATA
    __GLEW_ARB_framebuffer_object @1194 DATA
    __GLEW_ARB_framebuffer_sRGB @1195 DATA
    __GLEW_ARB_geometry_shader4 @1196 DATA
    __GLEW_ARB_get_program_binary @1197 DATA
    __GLEW_ARB_gpu_shader5 @1198 DATA
    __GLEW_ARB_gpu_shader_fp64 @1199 DATA
    __GLEW_ARB_half_float_pixel @1200 DATA
    __GLEW_ARB_half_float_vertex @1201 DATA
    __GLEW_ARB_imaging @1202 DATA
    __GLEW_ARB_instanced_arrays @1203 DATA
    __GLEW_ARB_internalformat_query @1204 DATA
    __GLEW_ARB_internalformat_query2 @1205 DATA
    __GLEW_ARB_invalidate_subdata @1206 DATA
    __GLEW_ARB_map_buffer_alignment @1207 DATA
    __GLEW_ARB_map_buffer_range @1208 DATA
    __GLEW_ARB_matrix_palette @1209 DATA
    __GLEW_ARB_multi_draw_indirect @1210 DATA
    __GLEW_ARB_multisample @1211 DATA
    __GLEW_ARB_multitexture @1212 DATA
    __GLEW_ARB_occlusion_query @1213 DATA
    __GLEW_ARB_occlusion_query2 @1214 DATA
    __GLEW_ARB_pixel_buffer_object @1215 DATA
    __GLEW_ARB_point_parameters @1216 DATA
    __GLEW_ARB_point_sprite @1217 DATA
    __GLEW_ARB_program_interface_query @1218 DATA
    __GLEW_ARB_provoking_vertex @1219 DATA
    __GLEW_ARB_robust_buffer_access_behavior @1220 DATA
    __GLEW_ARB_robustness @1221 DATA
    __GLEW_ARB_robustness_application_isolation @1222 DATA
    __GLEW_ARB_robustness_share_group_isolation @1223 DATA
    __GLEW_ARB_sample_shading @1224 DATA
    __GLEW_ARB_sampler_objects @1225 DATA
    __GLEW_ARB_seamless_cube_map @1226 DATA
    __GLEW_ARB_separate_shader_objects @1227 DATA
    __GLEW_ARB_shader_atomic_counters @1228 DATA
    __GLEW_ARB_shader_bit_encoding @1229 DATA
    __GLEW_ARB_shader_image_load_store @1230 DATA
    __GLEW_ARB_shader_image_size @1231 DATA
    __GLEW_ARB_shader_objects @1232 DATA
    __GLEW_ARB_shader_precision @1233 DATA
    __GLEW_ARB_shader_stencil_export @1234 DATA
    __GLEW_ARB_shader_storage_buffer_object @1235 DATA
    __GLEW_ARB_shader_subroutine @1236 DATA
    __GLEW_ARB_shader_texture_lod @1237 DATA
    __GLEW_ARB_shading_language_100 @1238 DATA
    __GLEW_ARB_shading_language_420pack @1239 DATA
    __GLEW_ARB_shading_language_include @1240 DATA
    __GLEW_ARB_shading_language_packing @1241 DATA
    __GLEW_ARB_shadow @1242 DATA
    __GLEW_ARB_shadow_ambient @1243 DATA
    __GLEW_ARB_stencil_texturing @1244 DATA
    __GLEW_ARB_sync @1245 DATA
    __GLEW_ARB_tessellation_shader @1246 DATA
    __GLEW_ARB_texture_border_clamp @1247 DATA
    __GLEW_ARB_texture_buffer_object @1248 DATA
    __GLEW_ARB_texture_buffer_object_rgb32 @1249 DATA
    __GLEW_ARB_texture_buffer_range @1250 DATA
    __GLEW_ARB_texture_compression @1251 DATA
    __GLEW_ARB_texture_compression_bptc @1252 DATA
    __GLEW_ARB_texture_compression_rgtc @1253 DATA
    __GLEW_ARB_texture_cube_map @1254 DATA
    __GLEW_ARB_texture_cube_map_array @1255 DATA
    __GLEW_ARB_texture_env_add @1256 DATA
    __GLEW_ARB_texture_env_combine @1257 DATA
    __GLEW_ARB_texture_env_crossbar @1258 DATA
    __GLEW_ARB_texture_env_dot3 @1259 DATA
    __GLEW_ARB_texture_float @1260 DATA
    __GLEW_ARB_texture_gather @1261 DATA
    __GLEW_ARB_texture_mirrored_repeat @1262 DATA
    __GLEW_ARB_texture_multisample @1263 DATA
    __GLEW_ARB_texture_non_power_of_two @1264 DATA
    __GLEW_ARB_texture_query_levels @1265 DATA
    __GLEW_ARB_texture_query_lod @1266 DATA
    __GLEW_ARB_texture_rectangle @1267 DATA
    __GLEW_ARB_texture_rg @1268 DATA
    __GLEW_ARB_texture_rgb10_a2ui @1269 DATA
    __GLEW_ARB_texture_storage @1270 DATA
    __GLEW_ARB_texture_storage_multisample @1271 DATA
    __GLEW_ARB_texture_swizzle @1272 DATA
    __GLEW_ARB_texture_view @1273 DATA
    __GLEW_ARB_timer_query @1274 DATA
    __GLEW_ARB_transform_feedback2 @1275 DATA
    __GLEW_ARB_transform_feedback3 @1276 DATA
    __GLEW_ARB_transform_feedback_instanced @1277 DATA
    __GLEW_ARB_transpose_matrix @1278 DATA
    __GLEW_ARB_uniform_buffer_object @1279 DATA
    __GLEW_ARB_vertex_array_bgra @1280 DATA
    __GLEW_ARB_vertex_array_object @1281 DATA
    __GLEW_ARB_vertex_attrib_64bit @1282 DATA
    __GLEW_ARB_vertex_attrib_binding @1283 DATA
    __GLEW_ARB_vertex_blend @1284 DATA
    __GLEW_ARB_vertex_buffer_object @1285 DATA
    __GLEW_ARB_vertex_program @1286 DATA
    __GLEW_ARB_vertex_shader @1287 DATA
    __GLEW_ARB_vertex_type_2_10_10_10_rev @1288 DATA
    __GLEW_ARB_viewport_array @1289 DATA
    __GLEW_ARB_window_pos @1290 DATA
    __GLEW_ATIX_point_sprites @1291 DATA
    __GLEW_ATIX_texture_env_combine3 @1292 DATA
    __GLEW_ATIX_texture_env_route @1293 DATA
    __GLEW_ATIX_vertex_shader_output_point_size @1294 DATA
    __GLEW_ATI_draw_buffers @1295 DATA
    __GLEW_ATI_element_array @1296 DATA
    __GLEW_ATI_envmap_bumpmap @1297 DATA
    __GLEW_ATI_fragment_shader @1298 DATA
    __GLEW_ATI_map_object_buffer @1299 DATA
    __GLEW_ATI_meminfo @1300 DATA
    __GLEW_ATI_pn_triangles @1301 DATA
    __GLEW_ATI_separate_stencil @1302 DATA
    __GLEW_ATI_shader_texture_lod @1303 DATA
    __GLEW_ATI_text_fragment_shader @1304 DATA
    __GLEW_ATI_texture_compression_3dc @1305 DATA
    __GLEW_ATI_texture_env_combine3 @1306 DATA
    __GLEW_ATI_texture_float @1307 DATA
    __GLEW_ATI_texture_mirror_once @1308 DATA
    __GLEW_ATI_vertex_array_object @1309 DATA
    __GLEW_ATI_vertex_attrib_array_object @1310 DATA
    __GLEW_ATI_vertex_streams @1311 DATA
    __GLEW_EXT_422_pixels @1312 DATA
    __GLEW_EXT_Cg_shader @1313 DATA
    __GLEW_EXT_abgr @1314 DATA
    __GLEW_EXT_bgra @1315 DATA
    __GLEW_EXT_bindable_uniform @1316 DATA
    __GLEW_EXT_blend_color @1317 DATA
    __GLEW_EXT_blend_equation_separate @1318 DATA
    __GLEW_EXT_blend_func_separate @1319 DATA
    __GLEW_EXT_blend_logic_op @1320 DATA
    __GLEW_EXT_blend_minmax @1321 DATA
    __GLEW_EXT_blend_subtract @1322 DATA
    __GLEW_EXT_clip_volume_hint @1323 DATA
    __GLEW_EXT_cmyka @1324 DATA
    __GLEW_EXT_color_subtable @1325 DATA
    __GLEW_EXT_compiled_vertex_array @1326 DATA
    __GLEW_EXT_convolution @1327 DATA
    __GLEW_EXT_coordinate_frame @1328 DATA
    __GLEW_EXT_copy_texture @1329 DATA
    __GLEW_EXT_cull_vertex @1330 DATA
    __GLEW_EXT_debug_marker @1331 DATA
    __GLEW_EXT_depth_bounds_test @1332 DATA
    __GLEW_EXT_direct_state_access @1333 DATA
    __GLEW_EXT_draw_buffers2 @1334 DATA
    __GLEW_EXT_draw_instanced @1335 DATA
    __GLEW_EXT_draw_range_elements @1336 DATA
    __GLEW_EXT_fog_coord @1337 DATA
    __GLEW_EXT_fragment_lighting @1338 DATA
    __GLEW_EXT_framebuffer_blit @1339 DATA
    __GLEW_EXT_framebuffer_multisample @1340 DATA
    __GLEW_EXT_framebuffer_multisample_blit_scaled @1341 DATA
    __GLEW_EXT_framebuffer_object @1342 DATA
    __GLEW_EXT_framebuffer_sRGB @1343 DATA
    __GLEW_EXT_geometry_shader4 @1344 DATA
    __GLEW_EXT_gpu_program_parameters @1345 DATA
    __GLEW_EXT_gpu_shader4 @1346 DATA
    __GLEW_EXT_histogram @1347 DATA
    __GLEW_EXT_index_array_formats @1348 DATA
    __GLEW_EXT_index_func @1349 DATA
    __GLEW_EXT_index_material @1350 DATA
    __GLEW_EXT_index_texture @1351 DATA
    __GLEW_EXT_light_texture @1352 DATA
    __GLEW_EXT_misc_attribute @1353 DATA
    __GLEW_EXT_multi_draw_arrays @1354 DATA
    __GLEW_EXT_multisample @1355 DATA
    __GLEW_EXT_packed_depth_stencil @1356 DATA
    __GLEW_EXT_packed_float @1357 DATA
    __GLEW_EXT_packed_pixels @1358 DATA
    __GLEW_EXT_paletted_texture @1359 DATA
    __GLEW_EXT_pixel_buffer_object @1360 DATA
    __GLEW_EXT_pixel_transform @1361 DATA
    __GLEW_EXT_pixel_transform_color_table @1362 DATA
    __GLEW_EXT_point_parameters @1363 DATA
    __GLEW_EXT_polygon_offset @1364 DATA
    __GLEW_EXT_provoking_vertex @1365 DATA
    __GLEW_EXT_rescale_normal @1366 DATA
    __GLEW_EXT_scene_marker @1367 DATA
    __GLEW_EXT_secondary_color @1368 DATA
    __GLEW_EXT_separate_shader_objects @1369 DATA
    __GLEW_EXT_separate_specular_color @1370 DATA
    __GLEW_EXT_shader_image_load_store @1371 DATA
    __GLEW_EXT_shadow_funcs @1372 DATA
    __GLEW_EXT_shared_texture_palette @1373 DATA
    __GLEW_EXT_stencil_clear_tag @1374 DATA
    __GLEW_EXT_stencil_two_side @1375 DATA
    __GLEW_EXT_stencil_wrap @1376 DATA
    __GLEW_EXT_subtexture @1377 DATA
    __GLEW_EXT_texture @1378 DATA
    __GLEW_EXT_texture3D @1379 DATA
    __GLEW_EXT_texture_array @1380 DATA
    __GLEW_EXT_texture_buffer_object @1381 DATA
    __GLEW_EXT_texture_compression_dxt1 @1382 DATA
    __GLEW_EXT_texture_compression_latc @1383 DATA
    __GLEW_EXT_texture_compression_rgtc @1384 DATA
    __GLEW_EXT_texture_compression_s3tc @1385 DATA
    __GLEW_EXT_texture_cube_map @1386 DATA
    __GLEW_EXT_texture_edge_clamp @1387 DATA
    __GLEW_EXT_texture_env @1388 DATA
    __GLEW_EXT_texture_env_add @1389 DATA
    __GLEW_EXT_texture_env_combine @1390 DATA
    __GLEW_EXT_texture_env_dot3 @1391 DATA
    __GLEW_EXT_texture_filter_anisotropic @1392 DATA
    __GLEW_EXT_texture_integer @1393 DATA
    __GLEW_EXT_texture_lod_bias @1394 DATA
    __GLEW_EXT_texture_mirror_clamp @1395 DATA
    __GLEW_EXT_texture_object @1396 DATA
    __GLEW_EXT_texture_perturb_normal @1397 DATA
    __GLEW_EXT_texture_rectangle @1398 DATA
    __GLEW_EXT_texture_sRGB @1399 DATA
    __GLEW_EXT_texture_sRGB_decode @1400 DATA
    __GLEW_EXT_texture_shared_exponent @1401 DATA
    __GLEW_EXT_texture_snorm @1402 DATA
    __GLEW_EXT_texture_swizzle @1403 DATA
    __GLEW_EXT_timer_query @1404 DATA
    __GLEW_EXT_transform_feedback @1405 DATA
    __GLEW_EXT_vertex_array @1406 DATA
    __GLEW_EXT_vertex_array_bgra @1407 DATA
    __GLEW_EXT_vertex_attrib_64bit @1408 DATA
    __GLEW_EXT_vertex_shader @1409 DATA
    __GLEW_EXT_vertex_weighting @1410 DATA
    __GLEW_EXT_x11_sync_object @1411 DATA
    __GLEW_GREMEDY_frame_terminator @1412 DATA
    __GLEW_GREMEDY_string_marker @1413 DATA
    __GLEW_HP_convolution_border_modes @1414 DATA
    __GLEW_HP_image_transform @1415 DATA
    __GLEW_HP_occlusion_test @1416 DATA
    __GLEW_HP_texture_lighting @1417 DATA
    __GLEW_IBM_cull_vertex @1418 DATA
    __GLEW_IBM_multimode_draw_arrays @1419 DATA
    __GLEW_IBM_rasterpos_clip @1420 DATA
    __GLEW_IBM_static_data @1421 DATA
    __GLEW_IBM_texture_mirrored_repeat @1422 DATA
    __GLEW_IBM_vertex_array_lists @1423 DATA
    __GLEW_INGR_color_clamp @1424 DATA
    __GLEW_INGR_interlace_read @1425 DATA
    __GLEW_INTEL_parallel_arrays @1426 DATA
    __GLEW_INTEL_texture_scissor @1427 DATA
    __GLEW_KHR_debug @1428 DATA
    __GLEW_KHR_texture_compression_astc_ldr @1429 DATA
    __GLEW_KTX_buffer_region @1430 DATA
    __GLEW_MESAX_texture_stack @1431 DATA
    __GLEW_MESA_pack_invert @1432 DATA
    __GLEW_MESA_resize_buffers @1433 DATA
    __GLEW_MESA_window_pos @1434 DATA
    __GLEW_MESA_ycbcr_texture @1435 DATA
    __GLEW_NVX_gpu_memory_info @1436 DATA
    __GLEW_NV_bindless_texture @1437 DATA
    __GLEW_NV_blend_square @1438 DATA
    __GLEW_NV_conditional_render @1439 DATA
    __GLEW_NV_copy_depth_to_color @1440 DATA
    __GLEW_NV_copy_image @1441 DATA
    __GLEW_NV_depth_buffer_float @1442 DATA
    __GLEW_NV_depth_clamp @1443 DATA
    __GLEW_NV_depth_range_unclamped @1444 DATA
    __GLEW_NV_evaluators @1445 DATA
    __GLEW_NV_explicit_multisample @1446 DATA
    __GLEW_NV_fence @1447 DATA
    __GLEW_NV_float_buffer @1448 DATA
    __GLEW_NV_fog_distance @1449 DATA
    __GLEW_NV_fragment_program @1450 DATA
    __GLEW_NV_fragment_program2 @1451 DATA
    __GLEW_NV_fragment_program4 @1452 DATA
    __GLEW_NV_fragment_program_option @1453 DATA
    __GLEW_NV_framebuffer_multisample_coverage @1454 DATA
    __GLEW_NV_geometry_program4 @1455 DATA
    __GLEW_NV_geometry_shader4 @1456 DATA
    __GLEW_NV_gpu_program4 @1457 DATA
    __GLEW_NV_gpu_program5 @1458 DATA
    __GLEW_NV_gpu_program_fp64 @1459 DATA
    __GLEW_NV_gpu_shader5 @1460 DATA
    __GLEW_NV_half_float @1461 DATA
    __GLEW_NV_light_max_exponent @1462 DATA
    __GLEW_NV_multisample_coverage @1463 DATA
    __GLEW_NV_multisample_filter_hint @1464 DATA
    __GLEW_NV_occlusion_query @1465 DATA
    __GLEW_NV_packed_depth_stencil @1466 DATA
    __GLEW_NV_parameter_buffer_object @1467 DATA
    __GLEW_NV_parameter_buffer_object2 @1468 DATA
    __GLEW_NV_path_rendering @1469 DATA
    __GLEW_NV_pixel_data_range @1470 DATA
    __GLEW_NV_point_sprite @1471 DATA
    __GLEW_NV_present_video @1472 DATA
    __GLEW_NV_primitive_restart @1473 DATA
    __GLEW_NV_register_combiners @1474 DATA
    __GLEW_NV_register_combiners2 @1475 DATA
    __GLEW_NV_shader_atomic_float @1476 DATA
    __GLEW_NV_shader_buffer_load @1477 DATA
    __GLEW_NV_tessellation_program5 @1478 DATA
    __GLEW_NV_texgen_emboss @1479 DATA
    __GLEW_NV_texgen_reflection @1480 DATA
    __GLEW_NV_texture_barrier @1481 DATA
    __GLEW_NV_texture_compression_vtc @1482 DATA
    __GLEW_NV_texture_env_combine4 @1483 DATA
    __GLEW_NV_texture_expand_normal @1484 DATA
    __GLEW_NV_texture_multisample @1485 DATA
    __GLEW_NV_texture_rectangle @1486 DATA
    __GLEW_NV_texture_shader @1487 DATA
    __GLEW_NV_texture_shader2 @1488 DATA
    __GLEW_NV_texture_shader3 @1489 DATA
    __GLEW_NV_transform_feedback @1490 DATA
    __GLEW_NV_transform_feedback2 @1491 DATA
    __GLEW_NV_vdpau_interop @1492 DATA
    __GLEW_NV_vertex_array_range @1493 DATA
    __GLEW_NV_vertex_array_range2 @1494 DATA
    __GLEW_NV_vertex_attrib_integer_64bit @1495 DATA
    __GLEW_NV_vertex_buffer_unified_memory @1496 DATA
    __GLEW_NV_vertex_program @1497 DATA
    __GLEW_NV_vertex_program1_1 @1498 DATA
    __GLEW_NV_vertex_program2 @1499 DATA
    __GLEW_NV_vertex_program2_option @1500 DATA
    __GLEW_NV_vertex_program3 @1501 DATA
    __GLEW_NV_vertex_program4 @1502 DATA
    __GLEW_NV_video_capture @1503 DATA
    __GLEW_OES_byte_coordinates @1504 DATA
    __GLEW_OES_compressed_paletted_texture @1505 DATA
    __GLEW_OES_read_format @1506 DATA
    __GLEW_OES_single_precision @1507 DATA
    __GLEW_OML_interlace @1508 DATA
    __GLEW_OML_resample @1509 DATA
    __GLEW_OML_subsample @1510 DATA
    __GLEW_PGI_misc_hints @1511 DATA
    __GLEW_PGI_vertex_hints @1512 DATA
    __GLEW_REGAL_error_string @1513 DATA
    __GLEW_REGAL_extension_query @1514 DATA
    __GLEW_REGAL_log @1515 DATA
    __GLEW_REND_screen_coordinates @1516 DATA
    __GLEW_S3_s3tc @1517 DATA
    __GLEW_SGIS_color_range @1518 DATA
    __GLEW_SGIS_detail_texture @1519 DATA
    __GLEW_SGIS_fog_function @1520 DATA
    __GLEW_SGIS_generate_mipmap @1521 DATA
    __GLEW_SGIS_multisample @1522 DATA
    __GLEW_SGIS_pixel_texture @1523 DATA
    __GLEW_SGIS_point_line_texgen @1524 DATA
    __GLEW_SGIS_sharpen_texture @1525 DATA
    __GLEW_SGIS_texture4D @1526 DATA
    __GLEW_SGIS_texture_border_clamp @1527 DATA
    __GLEW_SGIS_texture_edge_clamp @1528 DATA
    __GLEW_SGIS_texture_filter4 @1529 DATA
    __GLEW_SGIS_texture_lod @1530 DATA
    __GLEW_SGIS_texture_select @1531 DATA
    __GLEW_SGIX_async @1532 DATA
    __GLEW_SGIX_async_histogram @1533 DATA
    __GLEW_SGIX_async_pixel @1534 DATA
    __GLEW_SGIX_blend_alpha_minmax @1535 DATA
    __GLEW_SGIX_clipmap @1536 DATA
    __GLEW_SGIX_convolution_accuracy @1537 DATA
    __GLEW_SGIX_depth_texture @1538 DATA
    __GLEW_SGIX_flush_raster @1539 DATA
    __GLEW_SGIX_fog_offset @1540 DATA
    __GLEW_SGIX_fog_texture @1541 DATA
    __GLEW_SGIX_fragment_specular_lighting @1542 DATA
    __GLEW_SGIX_framezoom @1543 DATA
    __GLEW_SGIX_interlace @1544 DATA
    __GLEW_SGIX_ir_instrument1 @1545 DATA
    __GLEW_SGIX_list_priority @1546 DATA
    __GLEW_SGIX_pixel_texture @1547 DATA
    __GLEW_SGIX_pixel_texture_bits @1548 DATA
    __GLEW_SGIX_reference_plane @1549 DATA
    __GLEW_SGIX_resample @1550 DATA
    __GLEW_SGIX_shadow @1551 DATA
    __GLEW_SGIX_shadow_ambient @1552 DATA
    __GLEW_SGIX_sprite @1553 DATA
    __GLEW_SGIX_tag_sample_buffer @1554 DATA
    __GLEW_SGIX_texture_add_env @1555 DATA
    __GLEW_SGIX_texture_coordinate_clamp @1556 DATA
    __GLEW_SGIX_texture_lod_bias @1557 DATA
    __GLEW_SGIX_texture_multi_buffer @1558 DATA
    __GLEW_SGIX_texture_range @1559 DATA
    __GLEW_SGIX_texture_scale_bias @1560 DATA
    __GLEW_SGIX_vertex_preclip @1561 DATA
    __GLEW_SGIX_vertex_preclip_hint @1562 DATA
    __GLEW_SGIX_ycrcb @1563 DATA
    __GLEW_SGI_color_matrix @1564 DATA
    __GLEW_SGI_color_table @1565 DATA
    __GLEW_SGI_texture_color_table @1566 DATA
    __GLEW_SUNX_constant_data @1567 DATA
    __GLEW_SUN_convolution_border_modes @1568 DATA
    __GLEW_SUN_global_alpha @1569 DATA
    __GLEW_SUN_mesh_array @1570 DATA
    __GLEW_SUN_read_video_pixels @1571 DATA
    __GLEW_SUN_slice_accum @1572 DATA
    __GLEW_SUN_triangle_list @1573 DATA
    __GLEW_SUN_vertex @1574 DATA
    __GLEW_VERSION_1_1 @1575 DATA
    __GLEW_VERSION_1_2 @1576 DATA
    __GLEW_VERSION_1_2_1 @1577 DATA
    __GLEW_VERSION_1_3 @1578 DATA
    __GLEW_VERSION_1_4 @1579 DATA
    __GLEW_VERSION_1_5 @1580 DATA
    __GLEW_VERSION_2_0 @1581 DATA
    __GLEW_VERSION_2_1 @1582 DATA
    __GLEW_VERSION_3_0 @1583 DATA
    __GLEW_VERSION_3_1 @1584 DATA
    __GLEW_VERSION_3_2 @1585 DATA
    __GLEW_VERSION_3_3 @1586 DATA
    __GLEW_VERSION_4_0 @1587 DATA
    __GLEW_VERSION_4_1 @1588 DATA
    __GLEW_VERSION_4_2 @1589 DATA
    __GLEW_VERSION_4_3 @1590 DATA
    __GLEW_WIN_phong_shading @1591 DATA
    __GLEW_WIN_specular_fog @1592 DATA
    __GLEW_WIN_swap_hint @1593 DATA
    __WGLEW_3DFX_multisample @1594 DATA
    __WGLEW_3DL_stereo_control @1595 DATA
    __WGLEW_AMD_gpu_association @1596 DATA
    __WGLEW_ARB_buffer_region @1597 DATA
    __WGLEW_ARB_create_context @1598 DATA
    __WGLEW_ARB_create_context_profile @1599 DATA
    __WGLEW_ARB_create_context_robustness @1600 DATA
    __WGLEW_ARB_extensions_string @1601 DATA
    __WGLEW_ARB_framebuffer_sRGB @1602 DATA
    __WGLEW_ARB_make_current_read @1603 DATA
    __WGLEW_ARB_multisample @1604 DATA
    __WGLEW_ARB_pbuffer @1605 DATA
    __WGLEW_ARB_pixel_format @1606 DATA
    __WGLEW_ARB_pixel_format_float @1607 DATA
    __WGLEW_ARB_render_texture @1608 DATA
    __WGLEW_ATI_pixel_format_float @1609 DATA
    __WGLEW_ATI_render_texture_rectangle @1610 DATA
    __WGLEW_EXT_create_context_es2_profile @1611 DATA
    __WGLEW_EXT_create_context_es_profile @1612 DATA
    __WGLEW_EXT_depth_float @1613 DATA
    __WGLEW_EXT_display_color_table @1614 DATA
    __WGLEW_EXT_extensions_string @1615 DATA
    __WGLEW_EXT_framebuffer_sRGB @1616 DATA
    __WGLEW_EXT_make_current_read @1617 DATA
    __WGLEW_EXT_multisample @1618 DATA
    __WGLEW_EXT_pbuffer @1619 DATA
    __WGLEW_EXT_pixel_format @1620 DATA
    __WGLEW_EXT_pixel_format_packed_float @1621 DATA
    __WGLEW_EXT_swap_control @1622 DATA
    __WGLEW_EXT_swap_control_tear @1623 DATA
    __WGLEW_I3D_digital_video_control @1624 DATA
    __WGLEW_I3D_gamma @1625 DATA
    __WGLEW_I3D_genlock @1626 DATA
    __WGLEW_I3D_image_buffer @1627 DATA
    __WGLEW_I3D_swap_frame_lock @1628 DATA
    __WGLEW_I3D_swap_frame_usage @1629 DATA
    __WGLEW_NV_DX_interop @1630 DATA
    __WGLEW_NV_DX_interop2 @1631 DATA
    __WGLEW_NV_copy_image @1632 DATA
    __WGLEW_NV_float_buffer @1633 DATA
    __WGLEW_NV_gpu_affinity @1634 DATA
    __WGLEW_NV_multisample_coverage @1635 DATA
    __WGLEW_NV_present_video @1636 DATA
    __WGLEW_NV_render_depth_texture @1637 DATA
    __WGLEW_NV_render_texture_rectangle @1638 DATA
    __WGLEW_NV_swap_group @1639 DATA
    __WGLEW_NV_vertex_array_range @1640 DATA
    __WGLEW_NV_video_capture @1641 DATA
    __WGLEW_NV_video_output @1642 DATA
    __WGLEW_OML_sync_control @1643 DATA
    __glewActiveProgramEXT @1644 DATA
    __glewActiveShaderProgram @1645 DATA
    __glewActiveStencilFaceEXT @1646 DATA
    __glewActiveTexture @1647 DATA
    __glewActiveTextureARB @1648 DATA
    __glewActiveVaryingNV @1649 DATA
    __glewAddSwapHintRectWIN @1650 DATA
    __glewAlphaFragmentOp1ATI @1651 DATA
    __glewAlphaFragmentOp2ATI @1652 DATA
    __glewAlphaFragmentOp3ATI @1653 DATA
    __glewApplyTextureEXT @1654 DATA
    __glewAreProgramsResidentNV @1655 DATA
    __glewAreTexturesResidentEXT @1656 DATA
    __glewArrayElementEXT @1657 DATA
    __glewArrayObjectATI @1658 DATA
    __glewAsyncMarkerSGIX @1659 DATA
    __glewAttachObjectARB @1660 DATA
    __glewAttachShader @1661 DATA
    __glewBeginConditionalRender @1662 DATA
    __glewBeginConditionalRenderNV @1663 DATA
    __glewBeginFragmentShaderATI @1664 DATA
    __glewBeginOcclusionQueryNV @1665 DATA
    __glewBeginPerfMonitorAMD @1666 DATA
    __glewBeginQuery @1667 DATA
    __glewBeginQueryARB @1668 DATA
    __glewBeginQueryIndexed @1669 DATA
    __glewBeginSceneEXT @1670 DATA
    __glewBeginTransformFeedback @1671 DATA
    __glewBeginTransformFeedbackEXT @1672 DATA
    __glewBeginTransformFeedbackNV @1673 DATA
    __glewBeginVertexShaderEXT @1674 DATA
    __glewBeginVideoCaptureNV @1675 DATA
    __glewBindAttribLocation @1676 DATA
    __glewBindAttribLocationARB @1677 DATA
    __glewBindBuffer @1678 DATA
    __glewBindBufferARB @1679 DATA
    __glewBindBufferBase @1680 DATA
    __glewBindBufferBaseEXT @1681 DATA
    __glewBindBufferBaseNV @1682 DATA
    __glewBindBufferOffsetEXT @1683 DATA
    __glewBindBufferOffsetNV @1684 DATA
    __glewBindBufferRange @1685 DATA
    __glewBindBufferRangeEXT @1686 DATA
    __glewBindBufferRangeNV @1687 DATA
    __glewBindFragDataLocation @1688 DATA
    __glewBindFragDataLocationEXT @1689 DATA
    __glewBindFragDataLocationIndexed @1690 DATA
    __glewBindFragmentShaderATI @1691 DATA
    __glewBindFramebuffer @1692 DATA
    __glewBindFramebufferEXT @1693 DATA
    __glewBindImageTexture @1694 DATA
    __glewBindImageTextureEXT @1695 DATA
    __glewBindLightParameterEXT @1696 DATA
    __glewBindMaterialParameterEXT @1697 DATA
    __glewBindMultiTextureEXT @1698 DATA
    __glewBindParameterEXT @1699 DATA
    __glewBindProgramARB @1700 DATA
    __glewBindProgramNV @1701 DATA
    __glewBindProgramPipeline @1702 DATA
    __glewBindRenderbuffer @1703 DATA
    __glewBindRenderbufferEXT @1704 DATA
    __glewBindSampler @1705 DATA
    __glewBindTexGenParameterEXT @1706 DATA
    __glewBindTextureEXT @1707 DATA
    __glewBindTextureUnitParameterEXT @1708 DATA
    __glewBindTransformFeedback @1709 DATA
    __glewBindTransformFeedbackNV @1710 DATA
    __glewBindVertexArray @1711 DATA
    __glewBindVertexArrayAPPLE @1712 DATA
    __glewBindVertexBuffer @1713 DATA
    __glewBindVertexShaderEXT @1714 DATA
    __glewBindVideoCaptureStreamBufferNV @1715 DATA
    __glewBindVideoCaptureStreamTextureNV @1716 DATA
    __glewBinormalPointerEXT @1717 DATA
    __glewBlendColor @1718 DATA
    __glewBlendColorEXT @1719 DATA
    __glewBlendEquation @1720 DATA
    __glewBlendEquationEXT @1721 DATA
    __glewBlendEquationIndexedAMD @1722 DATA
    __glewBlendEquationSeparate @1723 DATA
    __glewBlendEquationSeparateEXT @1724 DATA
    __glewBlendEquationSeparateIndexedAMD @1725 DATA
    __glewBlendEquationSeparatei @1726 DATA
    __glewBlendEquationSeparateiARB @1727 DATA
    __glewBlendEquationi @1728 DATA
    __glewBlendEquationiARB @1729 DATA
    __glewBlendFuncIndexedAMD @1730 DATA
    __glewBlendFuncSeparate @1731 DATA
    __glewBlendFuncSeparateEXT @1732 DATA
    __glewBlendFuncSeparateIndexedAMD @1733 DATA
    __glewBlendFuncSeparatei @1734 DATA
    __glewBlendFuncSeparateiARB @1735 DATA
    __glewBlendFunci @1736 DATA
    __glewBlendFunciARB @1737 DATA
    __glewBlitFramebuffer @1738 DATA
    __glewBlitFramebufferEXT @1739 DATA
    __glewBufferAddressRangeNV @1740 DATA
    __glewBufferData @1741 DATA
    __glewBufferDataARB @1742 DATA
    __glewBufferParameteriAPPLE @1743 DATA
    __glewBufferRegionEnabled @1744 DATA
    __glewBufferSubData @1745 DATA
    __glewBufferSubDataARB @1746 DATA
    __glewCheckFramebufferStatus @1747 DATA
    __glewCheckFramebufferStatusEXT @1748 DATA
    __glewCheckNamedFramebufferStatusEXT @1749 DATA
    __glewClampColor @1750 DATA
    __glewClampColorARB @1751 DATA
    __glewClearBufferData @1752 DATA
    __glewClearBufferSubData @1753 DATA
    __glewClearBufferfi @1754 DATA
    __glewClearBufferfv @1755 DATA
    __glewClearBufferiv @1756 DATA
    __glewClearBufferuiv @1757 DATA
    __glewClearColorIiEXT @1758 DATA
    __glewClearColorIuiEXT @1759 DATA
    __glewClearDepthdNV @1760 DATA
    __glewClearDepthf @1761 DATA
    __glewClearDepthfOES @1762 DATA
    __glewClearNamedBufferDataEXT @1763 DATA
    __glewClearNamedBufferSubDataEXT @1764 DATA
    __glewClientActiveTexture @1765 DATA
    __glewClientActiveTextureARB @1766 DATA
    __glewClientActiveVertexStreamATI @1767 DATA
    __glewClientAttribDefaultEXT @1768 DATA
    __glewClientWaitSync @1769 DATA
    __glewClipPlanefOES @1770 DATA
    __glewColor3fVertex3fSUN @1771 DATA
    __glewColor3fVertex3fvSUN @1772 DATA
    __glewColor3hNV @1773 DATA
    __glewColor3hvNV @1774 DATA
    __glewColor4fNormal3fVertex3fSUN @1775 DATA
    __glewColor4fNormal3fVertex3fvSUN @1776 DATA
    __glewColor4hNV @1777 DATA
    __glewColor4hvNV @1778 DATA
    __glewColor4ubVertex2fSUN @1779 DATA
    __glewColor4ubVertex2fvSUN @1780 DATA
    __glewColor4ubVertex3fSUN @1781 DATA
    __glewColor4ubVertex3fvSUN @1782 DATA
    __glewColorFormatNV @1783 DATA
    __glewColorFragmentOp1ATI @1784 DATA
    __glewColorFragmentOp2ATI @1785 DATA
    __glewColorFragmentOp3ATI @1786 DATA
    __glewColorMaskIndexedEXT @1787 DATA
    __glewColorMaski @1788 DATA
    __glewColorP3ui @1789 DATA
    __glewColorP3uiv @1790 DATA
    __glewColorP4ui @1791 DATA
    __glewColorP4uiv @1792 DATA
    __glewColorPointerEXT @1793 DATA
    __glewColorPointerListIBM @1794 DATA
    __glewColorPointervINTEL @1795 DATA
    __glewColorSubTable @1796 DATA
    __glewColorSubTableEXT @1797 DATA
    __glewColorTable @1798 DATA
    __glewColorTableEXT @1799 DATA
    __glewColorTableParameterfv @1800 DATA
    __glewColorTableParameterfvSGI @1801 DATA
    __glewColorTableParameteriv @1802 DATA
    __glewColorTableParameterivSGI @1803 DATA
    __glewColorTableSGI @1804 DATA
    __glewCombinerInputNV @1805 DATA
    __glewCombinerOutputNV @1806 DATA
    __glewCombinerParameterfNV @1807 DATA
    __glewCombinerParameterfvNV @1808 DATA
    __glewCombinerParameteriNV @1809 DATA
    __glewCombinerParameterivNV @1810 DATA
    __glewCombinerStageParameterfvNV @1811 DATA
    __glewCompileShader @1812 DATA
    __glewCompileShaderARB @1813 DATA
    __glewCompileShaderIncludeARB @1814 DATA
    __glewCompressedMultiTexImage1DEXT @1815 DATA
    __glewCompressedMultiTexImage2DEXT @1816 DATA
    __glewCompressedMultiTexImage3DEXT @1817 DATA
    __glewCompressedMultiTexSubImage1DEXT @1818 DATA
    __glewCompressedMultiTexSubImage2DEXT @1819 DATA
    __glewCompressedMultiTexSubImage3DEXT @1820 DATA
    __glewCompressedTexImage1D @1821 DATA
    __glewCompressedTexImage1DARB @1822 DATA
    __glewCompressedTexImage2D @1823 DATA
    __glewCompressedTexImage2DARB @1824 DATA
    __glewCompressedTexImage3D @1825 DATA
    __glewCompressedTexImage3DARB @1826 DATA
    __glewCompressedTexSubImage1D @1827 DATA
    __glewCompressedTexSubImage1DARB @1828 DATA
    __glewCompressedTexSubImage2D @1829 DATA
    __glewCompressedTexSubImage2DARB @1830 DATA
    __glewCompressedTexSubImage3D @1831 DATA
    __glewCompressedTexSubImage3DARB @1832 DATA
    __glewCompressedTextureImage1DEXT @1833 DATA
    __glewCompressedTextureImage2DEXT @1834 DATA
    __glewCompressedTextureImage3DEXT @1835 DATA
    __glewCompressedTextureSubImage1DEXT @1836 DATA
    __glewCompressedTextureSubImage2DEXT @1837 DATA
    __glewCompressedTextureSubImage3DEXT @1838 DATA
    __glewConvolutionFilter1D @1839 DATA
    __glewConvolutionFilter1DEXT @1840 DATA
    __glewConvolutionFilter2D @1841 DATA
    __glewConvolutionFilter2DEXT @1842 DATA
    __glewConvolutionParameterf @1843 DATA
    __glewConvolutionParameterfEXT @1844 DATA
    __glewConvolutionParameterfv @1845 DATA
    __glewConvolutionParameterfvEXT @1846 DATA
    __glewConvolutionParameteri @1847 DATA
    __glewConvolutionParameteriEXT @1848 DATA
    __glewConvolutionParameteriv @1849 DATA
    __glewConvolutionParameterivEXT @1850 DATA
    __glewCopyBufferSubData @1851 DATA
    __glewCopyColorSubTable @1852 DATA
    __glewCopyColorSubTableEXT @1853 DATA
    __glewCopyColorTable @1854 DATA
    __glewCopyColorTableSGI @1855 DATA
    __glewCopyConvolutionFilter1D @1856 DATA
    __glewCopyConvolutionFilter1DEXT @1857 DATA
    __glewCopyConvolutionFilter2D @1858 DATA
    __glewCopyConvolutionFilter2DEXT @1859 DATA
    __glewCopyImageSubData @1860 DATA
    __glewCopyImageSubDataNV @1861 DATA
    __glewCopyMultiTexImage1DEXT @1862 DATA
    __glewCopyMultiTexImage2DEXT @1863 DATA
    __glewCopyMultiTexSubImage1DEXT @1864 DATA
    __glewCopyMultiTexSubImage2DEXT @1865 DATA
    __glewCopyMultiTexSubImage3DEXT @1866 DATA
    __glewCopyPathNV @1867 DATA
    __glewCopyTexImage1DEXT @1868 DATA
    __glewCopyTexImage2DEXT @1869 DATA
    __glewCopyTexSubImage1DEXT @1870 DATA
    __glewCopyTexSubImage2DEXT @1871 DATA
    __glewCopyTexSubImage3D @1872 DATA
    __glewCopyTexSubImage3DEXT @1873 DATA
    __glewCopyTextureImage1DEXT @1874 DATA
    __glewCopyTextureImage2DEXT @1875 DATA
    __glewCopyTextureSubImage1DEXT @1876 DATA
    __glewCopyTextureSubImage2DEXT @1877 DATA
    __glewCopyTextureSubImage3DEXT @1878 DATA
    __glewCoverFillPathInstancedNV @1879 DATA
    __glewCoverFillPathNV @1880 DATA
    __glewCoverStrokePathInstancedNV @1881 DATA
    __glewCoverStrokePathNV @1882 DATA
    __glewCreateProgram @1883 DATA
    __glewCreateProgramObjectARB @1884 DATA
    __glewCreateShader @1885 DATA
    __glewCreateShaderObjectARB @1886 DATA
    __glewCreateShaderProgramEXT @1887 DATA
    __glewCreateShaderProgramv @1888 DATA
    __glewCreateSyncFromCLeventARB @1889 DATA
    __glewCullParameterdvEXT @1890 DATA
    __glewCullParameterfvEXT @1891 DATA
    __glewCurrentPaletteMatrixARB @1892 DATA
    __glewDebugMessageCallback @1893 DATA
    __glewDebugMessageCallbackAMD @1894 DATA
    __glewDebugMessageCallbackARB @1895 DATA
    __glewDebugMessageControl @1896 DATA
    __glewDebugMessageControlARB @1897 DATA
    __glewDebugMessageEnableAMD @1898 DATA
    __glewDebugMessageInsert @1899 DATA
    __glewDebugMessageInsertAMD @1900 DATA
    __glewDebugMessageInsertARB @1901 DATA
    __glewDeleteAsyncMarkersSGIX @1902 DATA
    __glewDeleteBufferRegion @1903 DATA
    __glewDeleteBuffers @1904 DATA
    __glewDeleteBuffersARB @1905 DATA
    __glewDeleteFencesAPPLE @1906 DATA
    __glewDeleteFencesNV @1907 DATA
    __glewDeleteFragmentShaderATI @1908 DATA
    __glewDeleteFramebuffers @1909 DATA
    __glewDeleteFramebuffersEXT @1910 DATA
    __glewDeleteNamedStringARB @1911 DATA
    __glewDeleteNamesAMD @1912 DATA
    __glewDeleteObjectARB @1913 DATA
    __glewDeleteOcclusionQueriesNV @1914 DATA
    __glewDeletePathsNV @1915 DATA
    __glewDeletePerfMonitorsAMD @1916 DATA
    __glewDeleteProgram @1917 DATA
    __glewDeleteProgramPipelines @1918 DATA
    __glewDeleteProgramsARB @1919 DATA
    __glewDeleteProgramsNV @1920 DATA
    __glewDeleteQueries @1921 DATA
    __glewDeleteQueriesARB @1922 DATA
    __glewDeleteRenderbuffers @1923 DATA
    __glewDeleteRenderbuffersEXT @1924 DATA
    __glewDeleteSamplers @1925 DATA
    __glewDeleteShader @1926 DATA
    __glewDeleteSync @1927 DATA
    __glewDeleteTexturesEXT @1928 DATA
    __glewDeleteTransformFeedbacks @1929 DATA
    __glewDeleteTransformFeedbacksNV @1930 DATA
    __glewDeleteVertexArrays @1931 DATA
    __glewDeleteVertexArraysAPPLE @1932 DATA
    __glewDeleteVertexShaderEXT @1933 DATA
    __glewDepthBoundsEXT @1934 DATA
    __glewDepthBoundsdNV @1935 DATA
    __glewDepthRangeArrayv @1936 DATA
    __glewDepthRangeIndexed @1937 DATA
    __glewDepthRangedNV @1938 DATA
    __glewDepthRangef @1939 DATA
    __glewDepthRangefOES @1940 DATA
    __glewDetachObjectARB @1941 DATA
    __glewDetachShader @1942 DATA
    __glewDetailTexFuncSGIS @1943 DATA
    __glewDisableClientStateIndexedEXT @1944 DATA
    __glewDisableClientStateiEXT @1945 DATA
    __glewDisableIndexedEXT @1946 DATA
    __glewDisableVariantClientStateEXT @1947 DATA
    __glewDisableVertexArrayAttribEXT @1948 DATA
    __glewDisableVertexArrayEXT @1949 DATA
    __glewDisableVertexAttribAPPLE @1950 DATA
    __glewDisableVertexAttribArray @1951 DATA
    __glewDisableVertexAttribArrayARB @1952 DATA
    __glewDisablei @1953 DATA
    __glewDispatchCompute @1954 DATA
    __glewDispatchComputeIndirect @1955 DATA
    __glewDrawArraysEXT @1956 DATA
    __glewDrawArraysIndirect @1957 DATA
    __glewDrawArraysInstanced @1958 DATA
    __glewDrawArraysInstancedARB @1959 DATA
    __glewDrawArraysInstancedBaseInstance @1960 DATA
    __glewDrawArraysInstancedEXT @1961 DATA
    __glewDrawBufferRegion @1962 DATA
    __glewDrawBuffers @1963 DATA
    __glewDrawBuffersARB @1964 DATA
    __glewDrawBuffersATI @1965 DATA
    __glewDrawElementArrayAPPLE @1966 DATA
    __glewDrawElementArrayATI @1967 DATA
    __glewDrawElementsBaseVertex @1968 DATA
    __glewDrawElementsIndirect @1969 DATA
    __glewDrawElementsInstanced @1970 DATA
    __glewDrawElementsInstancedARB @1971 DATA
    __glewDrawElementsInstancedBaseInstance @1972 DATA
    __glewDrawElementsInstancedBaseVertex @1973 DATA
    __glewDrawElementsInstancedBaseVertexBaseInstance @1974 DATA
    __glewDrawElementsInstancedEXT @1975 DATA
    __glewDrawRangeElementArrayAPPLE @1976 DATA
    __glewDrawRangeElementArrayATI @1977 DATA
    __glewDrawRangeElements @1978 DATA
    __glewDrawRangeElementsBaseVertex @1979 DATA
    __glewDrawRangeElementsEXT @1980 DATA
    __glewDrawTransformFeedback @1981 DATA
    __glewDrawTransformFeedbackInstanced @1982 DATA
    __glewDrawTransformFeedbackNV @1983 DATA
    __glewDrawTransformFeedbackStream @1984 DATA
    __glewDrawTransformFeedbackStreamInstanced @1985 DATA
    __glewEdgeFlagFormatNV @1986 DATA
    __glewEdgeFlagPointerEXT @1987 DATA
    __glewEdgeFlagPointerListIBM @1988 DATA
    __glewElementPointerAPPLE @1989 DATA
    __glewElementPointerATI @1990 DATA
    __glewEnableClientStateIndexedEXT @1991 DATA
    __glewEnableClientStateiEXT @1992 DATA
    __glewEnableIndexedEXT @1993 DATA
    __glewEnableVariantClientStateEXT @1994 DATA
    __glewEnableVertexArrayAttribEXT @1995 DATA
    __glewEnableVertexArrayEXT @1996 DATA
    __glewEnableVertexAttribAPPLE @1997 DATA
    __glewEnableVertexAttribArray @1998 DATA
    __glewEnableVertexAttribArrayARB @1999 DATA
    __glewEnablei @2000 DATA
    __glewEndConditionalRender @2001 DATA
    __glewEndConditionalRenderNV @2002 DATA
    __glewEndFragmentShaderATI @2003 DATA
    __glewEndOcclusionQueryNV @2004 DATA
    __glewEndPerfMonitorAMD @2005 DATA
    __glewEndQuery @2006 DATA
    __glewEndQueryARB @2007 DATA
    __glewEndQueryIndexed @2008 DATA
    __glewEndSceneEXT @2009 DATA
    __glewEndTransformFeedback @2010 DATA
    __glewEndTransformFeedbackEXT @2011 DATA
    __glewEndTransformFeedbackNV @2012 DATA
    __glewEndVertexShaderEXT @2013 DATA
    __glewEndVideoCaptureNV @2014 DATA
    __glewErrorStringREGAL @2015 DATA
    __glewEvalMapsNV @2016 DATA
    __glewExecuteProgramNV @2017 DATA
    __glewExtractComponentEXT @2018 DATA
    __glewFenceSync @2019 DATA
    __glewFinalCombinerInputNV @2020 DATA
    __glewFinishAsyncSGIX @2021 DATA
    __glewFinishFenceAPPLE @2022 DATA
    __glewFinishFenceNV @2023 DATA
    __glewFinishObjectAPPLE @2024 DATA
    __glewFinishTextureSUNX @2025 DATA
    __glewFlushMappedBufferRange @2026 DATA
    __glewFlushMappedBufferRangeAPPLE @2027 DATA
    __glewFlushMappedNamedBufferRangeEXT @2028 DATA
    __glewFlushPixelDataRangeNV @2029 DATA
    __glewFlushRasterSGIX @2030 DATA
    __glewFlushVertexArrayRangeAPPLE @2031 DATA
    __glewFlushVertexArrayRangeNV @2032 DATA
    __glewFogCoordFormatNV @2033 DATA
    __glewFogCoordPointer @2034 DATA
    __glewFogCoordPointerEXT @2035 DATA
    __glewFogCoordPointerListIBM @2036 DATA
    __glewFogCoordd @2037 DATA
    __glewFogCoorddEXT @2038 DATA
    __glewFogCoorddv @2039 DATA
    __glewFogCoorddvEXT @2040 DATA
    __glewFogCoordf @2041 DATA
    __glewFogCoordfEXT @2042 DATA
    __glewFogCoordfv @2043 DATA
    __glewFogCoordfvEXT @2044 DATA
    __glewFogCoordhNV @2045 DATA
    __glewFogCoordhvNV @2046 DATA
    __glewFogFuncSGIS @2047 DATA
    __glewFragmentColorMaterialEXT @2048 DATA
    __glewFragmentColorMaterialSGIX @2049 DATA
    __glewFragmentLightModelfEXT @2050 DATA
    __glewFragmentLightModelfSGIX @2051 DATA
    __glewFragmentLightModelfvEXT @2052 DATA
    __glewFragmentLightModelfvSGIX @2053 DATA
    __glewFragmentLightModeliEXT @2054 DATA
    __glewFragmentLightModeliSGIX @2055 DATA
    __glewFragmentLightModelivEXT @2056 DATA
    __glewFragmentLightModelivSGIX @2057 DATA
    __glewFragmentLightfEXT @2058 DATA
    __glewFragmentLightfSGIX @2059 DATA
    __glewFragmentLightfvEXT @2060 DATA
    __glewFragmentLightfvSGIX @2061 DATA
    __glewFragmentLightiEXT @2062 DATA
    __glewFragmentLightiSGIX @2063 DATA
    __glewFragmentLightivEXT @2064 DATA
    __glewFragmentLightivSGIX @2065 DATA
    __glewFragmentMaterialfEXT @2066 DATA
    __glewFragmentMaterialfSGIX @2067 DATA
    __glewFragmentMaterialfvEXT @2068 DATA
    __glewFragmentMaterialfvSGIX @2069 DATA
    __glewFragmentMaterialiEXT @2070 DATA
    __glewFragmentMaterialiSGIX @2071 DATA
    __glewFragmentMaterialivEXT @2072 DATA
    __glewFragmentMaterialivSGIX @2073 DATA
    __glewFrameTerminatorGREMEDY @2074 DATA
    __glewFrameZoomSGIX @2075 DATA
    __glewFramebufferDrawBufferEXT @2076 DATA
    __glewFramebufferDrawBuffersEXT @2077 DATA
    __glewFramebufferParameteri @2078 DATA
    __glewFramebufferReadBufferEXT @2079 DATA
    __glewFramebufferRenderbuffer @2080 DATA
    __glewFramebufferRenderbufferEXT @2081 DATA
    __glewFramebufferTexture @2082 DATA
    __glewFramebufferTexture1D @2083 DATA
    __glewFramebufferTexture1DEXT @2084 DATA
    __glewFramebufferTexture2D @2085 DATA
    __glewFramebufferTexture2DEXT @2086 DATA
    __glewFramebufferTexture3D @2087 DATA
    __glewFramebufferTexture3DEXT @2088 DATA
    __glewFramebufferTextureARB @2089 DATA
    __glewFramebufferTextureEXT @2090 DATA
    __glewFramebufferTextureFaceARB @2091 DATA
    __glewFramebufferTextureFaceEXT @2092 DATA
    __glewFramebufferTextureLayer @2093 DATA
    __glewFramebufferTextureLayerARB @2094 DATA
    __glewFramebufferTextureLayerEXT @2095 DATA
    __glewFreeObjectBufferATI @2096 DATA
    __glewFrustumfOES @2097 DATA
    __glewGenAsyncMarkersSGIX @2098 DATA
    __glewGenBuffers @2099 DATA
    __glewGenBuffersARB @2100 DATA
    __glewGenFencesAPPLE @2101 DATA
    __glewGenFencesNV @2102 DATA
    __glewGenFragmentShadersATI @2103 DATA
    __glewGenFramebuffers @2104 DATA
    __glewGenFramebuffersEXT @2105 DATA
    __glewGenNamesAMD @2106 DATA
    __glewGenOcclusionQueriesNV @2107 DATA
    __glewGenPathsNV @2108 DATA
    __glewGenPerfMonitorsAMD @2109 DATA
    __glewGenProgramPipelines @2110 DATA
    __glewGenProgramsARB @2111 DATA
    __glewGenProgramsNV @2112 DATA
    __glewGenQueries @2113 DATA
    __glewGenQueriesARB @2114 DATA
    __glewGenRenderbuffers @2115 DATA
    __glewGenRenderbuffersEXT @2116 DATA
    __glewGenSamplers @2117 DATA
    __glewGenSymbolsEXT @2118 DATA
    __glewGenTexturesEXT @2119 DATA
    __glewGenTransformFeedbacks @2120 DATA
    __glewGenTransformFeedbacksNV @2121 DATA
    __glewGenVertexArrays @2122 DATA
    __glewGenVertexArraysAPPLE @2123 DATA
    __glewGenVertexShadersEXT @2124 DATA
    __glewGenerateMipmap @2125 DATA
    __glewGenerateMipmapEXT @2126 DATA
    __glewGenerateMultiTexMipmapEXT @2127 DATA
    __glewGenerateTextureMipmapEXT @2128 DATA
    __glewGetActiveAtomicCounterBufferiv @2129 DATA
    __glewGetActiveAttrib @2130 DATA
    __glewGetActiveAttribARB @2131 DATA
    __glewGetActiveSubroutineName @2132 DATA
    __glewGetActiveSubroutineUniformName @2133 DATA
    __glewGetActiveSubroutineUniformiv @2134 DATA
    __glewGetActiveUniform @2135 DATA
    __glewGetActiveUniformARB @2136 DATA
    __glewGetActiveUniformBlockName @2137 DATA
    __glewGetActiveUniformBlockiv @2138 DATA
    __glewGetActiveUniformName @2139 DATA
    __glewGetActiveUniformsiv @2140 DATA
    __glewGetActiveVaryingNV @2141 DATA
    __glewGetArrayObjectfvATI @2142 DATA
    __glewGetArrayObjectivATI @2143 DATA
    __glewGetAttachedObjectsARB @2144 DATA
    __glewGetAttachedShaders @2145 DATA
    __glewGetAttribLocation @2146 DATA
    __glewGetAttribLocationARB @2147 DATA
    __glewGetBooleanIndexedvEXT @2148 DATA
    __glewGetBooleani_v @2149 DATA
    __glewGetBufferParameteri64v @2150 DATA
    __glewGetBufferParameteriv @2151 DATA
    __glewGetBufferParameterivARB @2152 DATA
    __glewGetBufferParameterui64vNV @2153 DATA
    __glewGetBufferPointerv @2154 DATA
    __glewGetBufferPointervARB @2155 DATA
    __glewGetBufferSubData @2156 DATA
    __glewGetBufferSubDataARB @2157 DATA
    __glewGetClipPlanefOES @2158 DATA
    __glewGetColorTable @2159 DATA
    __glewGetColorTableEXT @2160 DATA
    __glewGetColorTableParameterfv @2161 DATA
    __glewGetColorTableParameterfvEXT @2162 DATA
    __glewGetColorTableParameterfvSGI @2163 DATA
    __glewGetColorTableParameteriv @2164 DATA
    __glewGetColorTableParameterivEXT @2165 DATA
    __glewGetColorTableParameterivSGI @2166 DATA
    __glewGetColorTableSGI @2167 DATA
    __glewGetCombinerInputParameterfvNV @2168 DATA
    __glewGetCombinerInputParameterivNV @2169 DATA
    __glewGetCombinerOutputParameterfvNV @2170 DATA
    __glewGetCombinerOutputParameterivNV @2171 DATA
    __glewGetCombinerStageParameterfvNV @2172 DATA
    __glewGetCompressedMultiTexImageEXT @2173 DATA
    __glewGetCompressedTexImage @2174 DATA
    __glewGetCompressedTexImageARB @2175 DATA
    __glewGetCompressedTextureImageEXT @2176 DATA
    __glewGetConvolutionFilter @2177 DATA
    __glewGetConvolutionFilterEXT @2178 DATA
    __glewGetConvolutionParameterfv @2179 DATA
    __glewGetConvolutionParameterfvEXT @2180 DATA
    __glewGetConvolutionParameteriv @2181 DATA
    __glewGetConvolutionParameterivEXT @2182 DATA
    __glewGetDebugMessageLog @2183 DATA
    __glewGetDebugMessageLogAMD @2184 DATA
    __glewGetDebugMessageLogARB @2185 DATA
    __glewGetDetailTexFuncSGIS @2186 DATA
    __glewGetDoubleIndexedvEXT @2187 DATA
    __glewGetDoublei_v @2188 DATA
    __glewGetDoublei_vEXT @2189 DATA
    __glewGetExtensionREGAL @2190 DATA
    __glewGetFenceivNV @2191 DATA
    __glewGetFinalCombinerInputParameterfvNV @2192 DATA
    __glewGetFinalCombinerInputParameterivNV @2193 DATA
    __glewGetFloatIndexedvEXT @2194 DATA
    __glewGetFloati_v @2195 DATA
    __glewGetFloati_vEXT @2196 DATA
    __glewGetFogFuncSGIS @2197 DATA
    __glewGetFragDataIndex @2198 DATA
    __glewGetFragDataLocation @2199 DATA
    __glewGetFragDataLocationEXT @2200 DATA
    __glewGetFragmentLightfvEXT @2201 DATA
    __glewGetFragmentLightfvSGIX @2202 DATA
    __glewGetFragmentLightivEXT @2203 DATA
    __glewGetFragmentLightivSGIX @2204 DATA
    __glewGetFragmentMaterialfvEXT @2205 DATA
    __glewGetFragmentMaterialfvSGIX @2206 DATA
    __glewGetFragmentMaterialivEXT @2207 DATA
    __glewGetFragmentMaterialivSGIX @2208 DATA
    __glewGetFramebufferAttachmentParameteriv @2209 DATA
    __glewGetFramebufferAttachmentParameterivEXT @2210 DATA
    __glewGetFramebufferParameteriv @2211 DATA
    __glewGetFramebufferParameterivEXT @2212 DATA
    __glewGetGraphicsResetStatusARB @2213 DATA
    __glewGetHandleARB @2214 DATA
    __glewGetHistogram @2215 DATA
    __glewGetHistogramEXT @2216 DATA
    __glewGetHistogramParameterfv @2217 DATA
    __glewGetHistogramParameterfvEXT @2218 DATA
    __glewGetHistogramParameteriv @2219 DATA
    __glewGetHistogramParameterivEXT @2220 DATA
    __glewGetImageHandleNV @2221 DATA
    __glewGetImageTransformParameterfvHP @2222 DATA
    __glewGetImageTransformParameterivHP @2223 DATA
    __glewGetInfoLogARB @2224 DATA
    __glewGetInteger64i_v @2225 DATA
    __glewGetInteger64v @2226 DATA
    __glewGetIntegerIndexedvEXT @2227 DATA
    __glewGetIntegeri_v @2228 DATA
    __glewGetIntegerui64i_vNV @2229 DATA
    __glewGetIntegerui64vNV @2230 DATA
    __glewGetInternalformati64v @2231 DATA
    __glewGetInternalformativ @2232 DATA
    __glewGetInvariantBooleanvEXT @2233 DATA
    __glewGetInvariantFloatvEXT @2234 DATA
    __glewGetInvariantIntegervEXT @2235 DATA
    __glewGetLocalConstantBooleanvEXT @2236 DATA
    __glewGetLocalConstantFloatvEXT @2237 DATA
    __glewGetLocalConstantIntegervEXT @2238 DATA
    __glewGetMapAttribParameterfvNV @2239 DATA
    __glewGetMapAttribParameterivNV @2240 DATA
    __glewGetMapControlPointsNV @2241 DATA
    __glewGetMapParameterfvNV @2242 DATA
    __glewGetMapParameterivNV @2243 DATA
    __glewGetMinmax @2244 DATA
    __glewGetMinmaxEXT @2245 DATA
    __glewGetMinmaxParameterfv @2246 DATA
    __glewGetMinmaxParameterfvEXT @2247 DATA
    __glewGetMinmaxParameteriv @2248 DATA
    __glewGetMinmaxParameterivEXT @2249 DATA
    __glewGetMultiTexEnvfvEXT @2250 DATA
    __glewGetMultiTexEnvivEXT @2251 DATA
    __glewGetMultiTexGendvEXT @2252 DATA
    __glewGetMultiTexGenfvEXT @2253 DATA
    __glewGetMultiTexGenivEXT @2254 DATA
    __glewGetMultiTexImageEXT @2255 DATA
    __glewGetMultiTexLevelParameterfvEXT @2256 DATA
    __glewGetMultiTexLevelParameterivEXT @2257 DATA
    __glewGetMultiTexParameterIivEXT @2258 DATA
    __glewGetMultiTexParameterIuivEXT @2259 DATA
    __glewGetMultiTexParameterfvEXT @2260 DATA
    __glewGetMultiTexParameterivEXT @2261 DATA
    __glewGetMultisamplefv @2262 DATA
    __glewGetMultisamplefvNV @2263 DATA
    __glewGetNamedBufferParameterivEXT @2264 DATA
    __glewGetNamedBufferParameterui64vNV @2265 DATA
    __glewGetNamedBufferPointervEXT @2266 DATA
    __glewGetNamedBufferSubDataEXT @2267 DATA
    __glewGetNamedFramebufferAttachmentParameterivEXT @2268 DATA
    __glewGetNamedFramebufferParameterivEXT @2269 DATA
    __glewGetNamedProgramLocalParameterIivEXT @2270 DATA
    __glewGetNamedProgramLocalParameterIuivEXT @2271 DATA
    __glewGetNamedProgramLocalParameterdvEXT @2272 DATA
    __glewGetNamedProgramLocalParameterfvEXT @2273 DATA
    __glewGetNamedProgramStringEXT @2274 DATA
    __glewGetNamedProgramivEXT @2275 DATA
    __glewGetNamedRenderbufferParameterivEXT @2276 DATA
    __glewGetNamedStringARB @2277 DATA
    __glewGetNamedStringivARB @2278 DATA
    __glewGetObjectBufferfvATI @2279 DATA
    __glewGetObjectBufferivATI @2280 DATA
    __glewGetObjectLabel @2281 DATA
    __glewGetObjectParameterfvARB @2282 DATA
    __glewGetObjectParameterivAPPLE @2283 DATA
    __glewGetObjectParameterivARB @2284 DATA
    __glewGetObjectPtrLabel @2285 DATA
    __glewGetOcclusionQueryivNV @2286 DATA
    __glewGetOcclusionQueryuivNV @2287 DATA
    __glewGetPathColorGenfvNV @2288 DATA
    __glewGetPathColorGenivNV @2289 DATA
    __glewGetPathCommandsNV @2290 DATA
    __glewGetPathCoordsNV @2291 DATA
    __glewGetPathDashArrayNV @2292 DATA
    __glewGetPathLengthNV @2293 DATA
    __glewGetPathMetricRangeNV @2294 DATA
    __glewGetPathMetricsNV @2295 DATA
    __glewGetPathParameterfvNV @2296 DATA
    __glewGetPathParameterivNV @2297 DATA
    __glewGetPathSpacingNV @2298 DATA
    __glewGetPathTexGenfvNV @2299 DATA
    __glewGetPathTexGenivNV @2300 DATA
    __glewGetPerfMonitorCounterDataAMD @2301 DATA
    __glewGetPerfMonitorCounterInfoAMD @2302 DATA
    __glewGetPerfMonitorCounterStringAMD @2303 DATA
    __glewGetPerfMonitorCountersAMD @2304 DATA
    __glewGetPerfMonitorGroupStringAMD @2305 DATA
    __glewGetPerfMonitorGroupsAMD @2306 DATA
    __glewGetPixelTransformParameterfvEXT @2307 DATA
    __glewGetPixelTransformParameterivEXT @2308 DATA
    __glewGetPointerIndexedvEXT @2309 DATA
    __glewGetPointeri_vEXT @2310 DATA
    __glewGetPointerv @2311 DATA
    __glewGetProgramBinary @2312 DATA
    __glewGetProgramEnvParameterdvARB @2313 DATA
    __glewGetProgramEnvParameterfvARB @2314 DATA
    __glewGetProgramInfoLog @2315 DATA
    __glewGetProgramInterfaceiv @2316 DATA
    __glewGetProgramLocalParameterdvARB @2317 DATA
    __glewGetProgramLocalParameterfvARB @2318 DATA
    __glewGetProgramNamedParameterdvNV @2319 DATA
    __glewGetProgramNamedParameterfvNV @2320 DATA
    __glewGetProgramParameterdvNV @2321 DATA
    __glewGetProgramParameterfvNV @2322 DATA
    __glewGetProgramPipelineInfoLog @2323 DATA
    __glewGetProgramPipelineiv @2324 DATA
    __glewGetProgramResourceIndex @2325 DATA
    __glewGetProgramResourceLocation @2326 DATA
    __glewGetProgramResourceLocationIndex @2327 DATA
    __glewGetProgramResourceName @2328 DATA
    __glewGetProgramResourceiv @2329 DATA
    __glewGetProgramStageiv @2330 DATA
    __glewGetProgramStringARB @2331 DATA
    __glewGetProgramStringNV @2332 DATA
    __glewGetProgramiv @2333 DATA
    __glewGetProgramivARB @2334 DATA
    __glewGetProgramivNV @2335 DATA
    __glewGetQueryIndexediv @2336 DATA
    __glewGetQueryObjecti64v @2337 DATA
    __glewGetQueryObjecti64vEXT @2338 DATA
    __glewGetQueryObjectiv @2339 DATA
    __glewGetQueryObjectivARB @2340 DATA
    __glewGetQueryObjectui64v @2341 DATA
    __glewGetQueryObjectui64vEXT @2342 DATA
    __glewGetQueryObjectuiv @2343 DATA
    __glewGetQueryObjectuivARB @2344 DATA
    __glewGetQueryiv @2345 DATA
    __glewGetQueryivARB @2346 DATA
    __glewGetRenderbufferParameteriv @2347 DATA
    __glewGetRenderbufferParameterivEXT @2348 DATA
    __glewGetSamplerParameterIiv @2349 DATA
    __glewGetSamplerParameterIuiv @2350 DATA
    __glewGetSamplerParameterfv @2351 DATA
    __glewGetSamplerParameteriv @2352 DATA
    __glewGetSeparableFilter @2353 DATA
    __glewGetSeparableFilterEXT @2354 DATA
    __glewGetShaderInfoLog @2355 DATA
    __glewGetShaderPrecisionFormat @2356 DATA
    __glewGetShaderSource @2357 DATA
    __glewGetShaderSourceARB @2358 DATA
    __glewGetShaderiv @2359 DATA
    __glewGetSharpenTexFuncSGIS @2360 DATA
    __glewGetStringi @2361 DATA
    __glewGetSubroutineIndex @2362 DATA
    __glewGetSubroutineUniformLocation @2363 DATA
    __glewGetSynciv @2364 DATA
    __glewGetTexBumpParameterfvATI @2365 DATA
    __glewGetTexBumpParameterivATI @2366 DATA
    __glewGetTexFilterFuncSGIS @2367 DATA
    __glewGetTexParameterIiv @2368 DATA
    __glewGetTexParameterIivEXT @2369 DATA
    __glewGetTexParameterIuiv @2370 DATA
    __glewGetTexParameterIuivEXT @2371 DATA
    __glewGetTexParameterPointervAPPLE @2372 DATA
    __glewGetTextureHandleNV @2373 DATA
    __glewGetTextureImageEXT @2374 DATA
    __glewGetTextureLevelParameterfvEXT @2375 DATA
    __glewGetTextureLevelParameterivEXT @2376 DATA
    __glewGetTextureParameterIivEXT @2377 DATA
    __glewGetTextureParameterIuivEXT @2378 DATA
    __glewGetTextureParameterfvEXT @2379 DATA
    __glewGetTextureParameterivEXT @2380 DATA
    __glewGetTextureSamplerHandleNV @2381 DATA
    __glewGetTrackMatrixivNV @2382 DATA
    __glewGetTransformFeedbackVarying @2383 DATA
    __glewGetTransformFeedbackVaryingEXT @2384 DATA
    __glewGetTransformFeedbackVaryingNV @2385 DATA
    __glewGetUniformBlockIndex @2386 DATA
    __glewGetUniformBufferSizeEXT @2387 DATA
    __glewGetUniformIndices @2388 DATA
    __glewGetUniformLocation @2389 DATA
    __glewGetUniformLocationARB @2390 DATA
    __glewGetUniformOffsetEXT @2391 DATA
    __glewGetUniformSubroutineuiv @2392 DATA
    __glewGetUniformdv @2393 DATA
    __glewGetUniformfv @2394 DATA
    __glewGetUniformfvARB @2395 DATA
    __glewGetUniformi64vNV @2396 DATA
    __glewGetUniformiv @2397 DATA
    __glewGetUniformivARB @2398 DATA
    __glewGetUniformui64vNV @2399 DATA
    __glewGetUniformuiv @2400 DATA
    __glewGetUniformuivEXT @2401 DATA
    __glewGetVariantArrayObjectfvATI @2402 DATA
    __glewGetVariantArrayObjectivATI @2403 DATA
    __glewGetVariantBooleanvEXT @2404 DATA
    __glewGetVariantFloatvEXT @2405 DATA
    __glewGetVariantIntegervEXT @2406 DATA
    __glewGetVariantPointervEXT @2407 DATA
    __glewGetVaryingLocationNV @2408 DATA
    __glewGetVertexArrayIntegeri_vEXT @2409 DATA
    __glewGetVertexArrayIntegervEXT @2410 DATA
    __glewGetVertexArrayPointeri_vEXT @2411 DATA
    __glewGetVertexArrayPointervEXT @2412 DATA
    __glewGetVertexAttribArrayObjectfvATI @2413 DATA
    __glewGetVertexAttribArrayObjectivATI @2414 DATA
    __glewGetVertexAttribIiv @2415 DATA
    __glewGetVertexAttribIivEXT @2416 DATA
    __glewGetVertexAttribIuiv @2417 DATA
    __glewGetVertexAttribIuivEXT @2418 DATA
    __glewGetVertexAttribLdv @2419 DATA
    __glewGetVertexAttribLdvEXT @2420 DATA
    __glewGetVertexAttribLi64vNV @2421 DATA
    __glewGetVertexAttribLui64vNV @2422 DATA
    __glewGetVertexAttribPointerv @2423 DATA
    __glewGetVertexAttribPointervARB @2424 DATA
    __glewGetVertexAttribPointervNV @2425 DATA
    __glewGetVertexAttribdv @2426 DATA
    __glewGetVertexAttribdvARB @2427 DATA
    __glewGetVertexAttribdvNV @2428 DATA
    __glewGetVertexAttribfv @2429 DATA
    __glewGetVertexAttribfvARB @2430 DATA
    __glewGetVertexAttribfvNV @2431 DATA
    __glewGetVertexAttribiv @2432 DATA
    __glewGetVertexAttribivARB @2433 DATA
    __glewGetVertexAttribivNV @2434 DATA
    __glewGetVideoCaptureStreamdvNV @2435 DATA
    __glewGetVideoCaptureStreamfvNV @2436 DATA
    __glewGetVideoCaptureStreamivNV @2437 DATA
    __glewGetVideoCaptureivNV @2438 DATA
    __glewGetVideoi64vNV @2439 DATA
    __glewGetVideoivNV @2440 DATA
    __glewGetVideoui64vNV @2441 DATA
    __glewGetVideouivNV @2442 DATA
    __glewGetnColorTableARB @2443 DATA
    __glewGetnCompressedTexImageARB @2444 DATA
    __glewGetnConvolutionFilterARB @2445 DATA
    __glewGetnHistogramARB @2446 DATA
    __glewGetnMapdvARB @2447 DATA
    __glewGetnMapfvARB @2448 DATA
    __glewGetnMapivARB @2449 DATA
    __glewGetnMinmaxARB @2450 DATA
    __glewGetnPixelMapfvARB @2451 DATA
    __glewGetnPixelMapuivARB @2452 DATA
    __glewGetnPixelMapusvARB @2453 DATA
    __glewGetnPolygonStippleARB @2454 DATA
    __glewGetnSeparableFilterARB @2455 DATA
    __glewGetnTexImageARB @2456 DATA
    __glewGetnUniformdvARB @2457 DATA
    __glewGetnUniformfvARB @2458 DATA
    __glewGetnUniformivARB @2459 DATA
    __glewGetnUniformuivARB @2460 DATA
    __glewGlobalAlphaFactorbSUN @2461 DATA
    __glewGlobalAlphaFactordSUN @2462 DATA
    __glewGlobalAlphaFactorfSUN @2463 DATA
    __glewGlobalAlphaFactoriSUN @2464 DATA
    __glewGlobalAlphaFactorsSUN @2465 DATA
    __glewGlobalAlphaFactorubSUN @2466 DATA
    __glewGlobalAlphaFactoruiSUN @2467 DATA
    __glewGlobalAlphaFactorusSUN @2468 DATA
    __glewHistogram @2469 DATA
    __glewHistogramEXT @2470 DATA
    __glewImageTransformParameterfHP @2471 DATA
    __glewImageTransformParameterfvHP @2472 DATA
    __glewImageTransformParameteriHP @2473 DATA
    __glewImageTransformParameterivHP @2474 DATA
    __glewImportSyncEXT @2475 DATA
    __glewIndexFormatNV @2476 DATA
    __glewIndexFuncEXT @2477 DATA
    __glewIndexMaterialEXT @2478 DATA
    __glewIndexPointerEXT @2479 DATA
    __glewIndexPointerListIBM @2480 DATA
    __glewInsertComponentEXT @2481 DATA
    __glewInsertEventMarkerEXT @2482 DATA
    __glewInterpolatePathsNV @2483 DATA
    __glewInvalidateBufferData @2484 DATA
    __glewInvalidateBufferSubData @2485 DATA
    __glewInvalidateFramebuffer @2486 DATA
    __glewInvalidateSubFramebuffer @2487 DATA
    __glewInvalidateTexImage @2488 DATA
    __glewInvalidateTexSubImage @2489 DATA
    __glewIsAsyncMarkerSGIX @2490 DATA
    __glewIsBuffer @2491 DATA
    __glewIsBufferARB @2492 DATA
    __glewIsBufferResidentNV @2493 DATA
    __glewIsEnabledIndexedEXT @2494 DATA
    __glewIsEnabledi @2495 DATA
    __glewIsFenceAPPLE @2496 DATA
    __glewIsFenceNV @2497 DATA
    __glewIsFramebuffer @2498 DATA
    __glewIsFramebufferEXT @2499 DATA
    __glewIsImageHandleResidentNV @2500 DATA
    __glewIsNameAMD @2501 DATA
    __glewIsNamedBufferResidentNV @2502 DATA
    __glewIsNamedStringARB @2503 DATA
    __glewIsObjectBufferATI @2504 DATA
    __glewIsOcclusionQueryNV @2505 DATA
    __glewIsPathNV @2506 DATA
    __glewIsPointInFillPathNV @2507 DATA
    __glewIsPointInStrokePathNV @2508 DATA
    __glewIsProgram @2509 DATA
    __glewIsProgramARB @2510 DATA
    __glewIsProgramNV @2511 DATA
    __glewIsProgramPipeline @2512 DATA
    __glewIsQuery @2513 DATA
    __glewIsQueryARB @2514 DATA
    __glewIsRenderbuffer @2515 DATA
    __glewIsRenderbufferEXT @2516 DATA
    __glewIsSampler @2517 DATA
    __glewIsShader @2518 DATA
    __glewIsSupportedREGAL @2519 DATA
    __glewIsSync @2520 DATA
    __glewIsTextureEXT @2521 DATA
    __glewIsTextureHandleResidentNV @2522 DATA
    __glewIsTransformFeedback @2523 DATA
    __glewIsTransformFeedbackNV @2524 DATA
    __glewIsVariantEnabledEXT @2525 DATA
    __glewIsVertexArray @2526 DATA
    __glewIsVertexArrayAPPLE @2527 DATA
    __glewIsVertexAttribEnabledAPPLE @2528 DATA
    __glewLightEnviEXT @2529 DATA
    __glewLinkProgram @2530 DATA
    __glewLinkProgramARB @2531 DATA
    __glewLoadProgramNV @2532 DATA
    __glewLoadTransposeMatrixd @2533 DATA
    __glewLoadTransposeMatrixdARB @2534 DATA
    __glewLoadTransposeMatrixf @2535 DATA
    __glewLoadTransposeMatrixfARB @2536 DATA
    __glewLockArraysEXT @2537 DATA
    __glewMakeBufferNonResidentNV @2538 DATA
    __glewMakeBufferResidentNV @2539 DATA
    __glewMakeImageHandleNonResidentNV @2540 DATA
    __glewMakeImageHandleResidentNV @2541 DATA
    __glewMakeNamedBufferNonResidentNV @2542 DATA
    __glewMakeNamedBufferResidentNV @2543 DATA
    __glewMakeTextureHandleNonResidentNV @2544 DATA
    __glewMakeTextureHandleResidentNV @2545 DATA
    __glewMapBuffer @2546 DATA
    __glewMapBufferARB @2547 DATA
    __glewMapBufferRange @2548 DATA
    __glewMapControlPointsNV @2549 DATA
    __glewMapNamedBufferEXT @2550 DATA
    __glewMapNamedBufferRangeEXT @2551 DATA
    __glewMapObjectBufferATI @2552 DATA
    __glewMapParameterfvNV @2553 DATA
    __glewMapParameterivNV @2554 DATA
    __glewMapVertexAttrib1dAPPLE @2555 DATA
    __glewMapVertexAttrib1fAPPLE @2556 DATA
    __glewMapVertexAttrib2dAPPLE @2557 DATA
    __glewMapVertexAttrib2fAPPLE @2558 DATA
    __glewMatrixFrustumEXT @2559 DATA
    __glewMatrixIndexPointerARB @2560 DATA
    __glewMatrixIndexubvARB @2561 DATA
    __glewMatrixIndexuivARB @2562 DATA
    __glewMatrixIndexusvARB @2563 DATA
    __glewMatrixLoadIdentityEXT @2564 DATA
    __glewMatrixLoadTransposedEXT @2565 DATA
    __glewMatrixLoadTransposefEXT @2566 DATA
    __glewMatrixLoaddEXT @2567 DATA
    __glewMatrixLoadfEXT @2568 DATA
    __glewMatrixMultTransposedEXT @2569 DATA
    __glewMatrixMultTransposefEXT @2570 DATA
    __glewMatrixMultdEXT @2571 DATA
    __glewMatrixMultfEXT @2572 DATA
    __glewMatrixOrthoEXT @2573 DATA
    __glewMatrixPopEXT @2574 DATA
    __glewMatrixPushEXT @2575 DATA
    __glewMatrixRotatedEXT @2576 DATA
    __glewMatrixRotatefEXT @2577 DATA
    __glewMatrixScaledEXT @2578 DATA
    __glewMatrixScalefEXT @2579 DATA
    __glewMatrixTranslatedEXT @2580 DATA
    __glewMatrixTranslatefEXT @2581 DATA
    __glewMemoryBarrier @2582 DATA
    __glewMemoryBarrierEXT @2583 DATA
    __glewMinSampleShading @2584 DATA
    __glewMinSampleShadingARB @2585 DATA
    __glewMinmax @2586 DATA
    __glewMinmaxEXT @2587 DATA
    __glewMultTransposeMatrixd @2588 DATA
    __glewMultTransposeMatrixdARB @2589 DATA
    __glewMultTransposeMatrixf @2590 DATA
    __glewMultTransposeMatrixfARB @2591 DATA
    __glewMultiDrawArrays @2592 DATA
    __glewMultiDrawArraysEXT @2593 DATA
    __glewMultiDrawArraysIndirect @2594 DATA
    __glewMultiDrawArraysIndirectAMD @2595 DATA
    __glewMultiDrawElementArrayAPPLE @2596 DATA
    __glewMultiDrawElements @2597 DATA
    __glewMultiDrawElementsBaseVertex @2598 DATA
    __glewMultiDrawElementsEXT @2599 DATA
    __glewMultiDrawElementsIndirect @2600 DATA
    __glewMultiDrawElementsIndirectAMD @2601 DATA
    __glewMultiDrawRangeElementArrayAPPLE @2602 DATA
    __glewMultiModeDrawArraysIBM @2603 DATA
    __glewMultiModeDrawElementsIBM @2604 DATA
    __glewMultiTexBufferEXT @2605 DATA
    __glewMultiTexCoord1d @2606 DATA
    __glewMultiTexCoord1dARB @2607 DATA
    __glewMultiTexCoord1dv @2608 DATA
    __glewMultiTexCoord1dvARB @2609 DATA
    __glewMultiTexCoord1f @2610 DATA
    __glewMultiTexCoord1fARB @2611 DATA
    __glewMultiTexCoord1fv @2612 DATA
    __glewMultiTexCoord1fvARB @2613 DATA
    __glewMultiTexCoord1hNV @2614 DATA
    __glewMultiTexCoord1hvNV @2615 DATA
    __glewMultiTexCoord1i @2616 DATA
    __glewMultiTexCoord1iARB @2617 DATA
    __glewMultiTexCoord1iv @2618 DATA
    __glewMultiTexCoord1ivARB @2619 DATA
    __glewMultiTexCoord1s @2620 DATA
    __glewMultiTexCoord1sARB @2621 DATA
    __glewMultiTexCoord1sv @2622 DATA
    __glewMultiTexCoord1svARB @2623 DATA
    __glewMultiTexCoord2d @2624 DATA
    __glewMultiTexCoord2dARB @2625 DATA
    __glewMultiTexCoord2dv @2626 DATA
    __glewMultiTexCoord2dvARB @2627 DATA
    __glewMultiTexCoord2f @2628 DATA
    __glewMultiTexCoord2fARB @2629 DATA
    __glewMultiTexCoord2fv @2630 DATA
    __glewMultiTexCoord2fvARB @2631 DATA
    __glewMultiTexCoord2hNV @2632 DATA
    __glewMultiTexCoord2hvNV @2633 DATA
    __glewMultiTexCoord2i @2634 DATA
    __glewMultiTexCoord2iARB @2635 DATA
    __glewMultiTexCoord2iv @2636 DATA
    __glewMultiTexCoord2ivARB @2637 DATA
    __glewMultiTexCoord2s @2638 DATA
    __glewMultiTexCoord2sARB @2639 DATA
    __glewMultiTexCoord2sv @2640 DATA
    __glewMultiTexCoord2svARB @2641 DATA
    __glewMultiTexCoord3d @2642 DATA
    __glewMultiTexCoord3dARB @2643 DATA
    __glewMultiTexCoord3dv @2644 DATA
    __glewMultiTexCoord3dvARB @2645 DATA
    __glewMultiTexCoord3f @2646 DATA
    __glewMultiTexCoord3fARB @2647 DATA
    __glewMultiTexCoord3fv @2648 DATA
    __glewMultiTexCoord3fvARB @2649 DATA
    __glewMultiTexCoord3hNV @2650 DATA
    __glewMultiTexCoord3hvNV @2651 DATA
    __glewMultiTexCoord3i @2652 DATA
    __glewMultiTexCoord3iARB @2653 DATA
    __glewMultiTexCoord3iv @2654 DATA
    __glewMultiTexCoord3ivARB @2655 DATA
    __glewMultiTexCoord3s @2656 DATA
    __glewMultiTexCoord3sARB @2657 DATA
    __glewMultiTexCoord3sv @2658 DATA
    __glewMultiTexCoord3svARB @2659 DATA
    __glewMultiTexCoord4d @2660 DATA
    __glewMultiTexCoord4dARB @2661 DATA
    __glewMultiTexCoord4dv @2662 DATA
    __glewMultiTexCoord4dvARB @2663 DATA
    __glewMultiTexCoord4f @2664 DATA
    __glewMultiTexCoord4fARB @2665 DATA
    __glewMultiTexCoord4fv @2666 DATA
    __glewMultiTexCoord4fvARB @2667 DATA
    __glewMultiTexCoord4hNV @2668 DATA
    __glewMultiTexCoord4hvNV @2669 DATA
    __glewMultiTexCoord4i @2670 DATA
    __glewMultiTexCoord4iARB @2671 DATA
    __glewMultiTexCoord4iv @2672 DATA
    __glewMultiTexCoord4ivARB @2673 DATA
    __glewMultiTexCoord4s @2674 DATA
    __glewMultiTexCoord4sARB @2675 DATA
    __glewMultiTexCoord4sv @2676 DATA
    __glewMultiTexCoord4svARB @2677 DATA
    __glewMultiTexCoordP1ui @2678 DATA
    __glewMultiTexCoordP1uiv @2679 DATA
    __glewMultiTexCoordP2ui @2680 DATA
    __glewMultiTexCoordP2uiv @2681 DATA
    __glewMultiTexCoordP3ui @2682 DATA
    __glewMultiTexCoordP3uiv @2683 DATA
    __glewMultiTexCoordP4ui @2684 DATA
    __glewMultiTexCoordP4uiv @2685 DATA
    __glewMultiTexCoordPointerEXT @2686 DATA
    __glewMultiTexEnvfEXT @2687 DATA
    __glewMultiTexEnvfvEXT @2688 DATA
    __glewMultiTexEnviEXT @2689 DATA
    __glewMultiTexEnvivEXT @2690 DATA
    __glewMultiTexGendEXT @2691 DATA
    __glewMultiTexGendvEXT @2692 DATA
    __glewMultiTexGenfEXT @2693 DATA
    __glewMultiTexGenfvEXT @2694 DATA
    __glewMultiTexGeniEXT @2695 DATA
    __glewMultiTexGenivEXT @2696 DATA
    __glewMultiTexImage1DEXT @2697 DATA
    __glewMultiTexImage2DEXT @2698 DATA
    __glewMultiTexImage3DEXT @2699 DATA
    __glewMultiTexParameterIivEXT @2700 DATA
    __glewMultiTexParameterIuivEXT @2701 DATA
    __glewMultiTexParameterfEXT @2702 DATA
    __glewMultiTexParameterfvEXT @2703 DATA
    __glewMultiTexParameteriEXT @2704 DATA
    __glewMultiTexParameterivEXT @2705 DATA
    __glewMultiTexRenderbufferEXT @2706 DATA
    __glewMultiTexSubImage1DEXT @2707 DATA
    __glewMultiTexSubImage2DEXT @2708 DATA
    __glewMultiTexSubImage3DEXT @2709 DATA
    __glewNamedBufferDataEXT @2710 DATA
    __glewNamedBufferSubDataEXT @2711 DATA
    __glewNamedCopyBufferSubDataEXT @2712 DATA
    __glewNamedFramebufferParameteriEXT @2713 DATA
    __glewNamedFramebufferRenderbufferEXT @2714 DATA
    __glewNamedFramebufferTexture1DEXT @2715 DATA
    __glewNamedFramebufferTexture2DEXT @2716 DATA
    __glewNamedFramebufferTexture3DEXT @2717 DATA
    __glewNamedFramebufferTextureEXT @2718 DATA
    __glewNamedFramebufferTextureFaceEXT @2719 DATA
    __glewNamedFramebufferTextureLayerEXT @2720 DATA
    __glewNamedProgramLocalParameter4dEXT @2721 DATA
    __glewNamedProgramLocalParameter4dvEXT @2722 DATA
    __glewNamedProgramLocalParameter4fEXT @2723 DATA
    __glewNamedProgramLocalParameter4fvEXT @2724 DATA
    __glewNamedProgramLocalParameterI4iEXT @2725 DATA
    __glewNamedProgramLocalParameterI4ivEXT @2726 DATA
    __glewNamedProgramLocalParameterI4uiEXT @2727 DATA
    __glewNamedProgramLocalParameterI4uivEXT @2728 DATA
    __glewNamedProgramLocalParameters4fvEXT @2729 DATA
    __glewNamedProgramLocalParametersI4ivEXT @2730 DATA
    __glewNamedProgramLocalParametersI4uivEXT @2731 DATA
    __glewNamedProgramStringEXT @2732 DATA
    __glewNamedRenderbufferStorageEXT @2733 DATA
    __glewNamedRenderbufferStorageMultisampleCoverageEXT @2734 DATA
    __glewNamedRenderbufferStorageMultisampleEXT @2735 DATA
    __glewNamedStringARB @2736 DATA
    __glewNewBufferRegion @2737 DATA
    __glewNewObjectBufferATI @2738 DATA
    __glewNormal3fVertex3fSUN @2739 DATA
    __glewNormal3fVertex3fvSUN @2740 DATA
    __glewNormal3hNV @2741 DATA
    __glewNormal3hvNV @2742 DATA
    __glewNormalFormatNV @2743 DATA
    __glewNormalP3ui @2744 DATA
    __glewNormalP3uiv @2745 DATA
    __glewNormalPointerEXT @2746 DATA
    __glewNormalPointerListIBM @2747 DATA
    __glewNormalPointervINTEL @2748 DATA
    __glewNormalStream3bATI @2749 DATA
    __glewNormalStream3bvATI @2750 DATA
    __glewNormalStream3dATI @2751 DATA
    __glewNormalStream3dvATI @2752 DATA
    __glewNormalStream3fATI @2753 DATA
    __glewNormalStream3fvATI @2754 DATA
    __glewNormalStream3iATI @2755 DATA
    __glewNormalStream3ivATI @2756 DATA
    __glewNormalStream3sATI @2757 DATA
    __glewNormalStream3svATI @2758 DATA
    __glewObjectLabel @2759 DATA
    __glewObjectPtrLabel @2760 DATA
    __glewObjectPurgeableAPPLE @2761 DATA
    __glewObjectUnpurgeableAPPLE @2762 DATA
    __glewOrthofOES @2763 DATA
    __glewPNTrianglesfATI @2764 DATA
    __glewPNTrianglesiATI @2765 DATA
    __glewPassTexCoordATI @2766 DATA
    __glewPatchParameterfv @2767 DATA
    __glewPatchParameteri @2768 DATA
    __glewPathColorGenNV @2769 DATA
    __glewPathCommandsNV @2770 DATA
    __glewPathCoordsNV @2771 DATA
    __glewPathCoverDepthFuncNV @2772 DATA
    __glewPathDashArrayNV @2773 DATA
    __glewPathFogGenNV @2774 DATA
    __glewPathGlyphRangeNV @2775 DATA
    __glewPathGlyphsNV @2776 DATA
    __glewPathParameterfNV @2777 DATA
    __glewPathParameterfvNV @2778 DATA
    __glewPathParameteriNV @2779 DATA
    __glewPathParameterivNV @2780 DATA
    __glewPathStencilDepthOffsetNV @2781 DATA
    __glewPathStencilFuncNV @2782 DATA
    __glewPathStringNV @2783 DATA
    __glewPathSubCommandsNV @2784 DATA
    __glewPathSubCoordsNV @2785 DATA
    __glewPathTexGenNV @2786 DATA
    __glewPauseTransformFeedback @2787 DATA
    __glewPauseTransformFeedbackNV @2788 DATA
    __glewPixelDataRangeNV @2789 DATA
    __glewPixelTexGenSGIX @2790 DATA
    __glewPixelTransformParameterfEXT @2791 DATA
    __glewPixelTransformParameterfvEXT @2792 DATA
    __glewPixelTransformParameteriEXT @2793 DATA
    __glewPixelTransformParameterivEXT @2794 DATA
    __glewPointAlongPathNV @2795 DATA
    __glewPointParameterf @2796 DATA
    __glewPointParameterfARB @2797 DATA
    __glewPointParameterfEXT @2798 DATA
    __glewPointParameterfv @2799 DATA
    __glewPointParameterfvARB @2800 DATA
    __glewPointParameterfvEXT @2801 DATA
    __glewPointParameteri @2802 DATA
    __glewPointParameteriNV @2803 DATA
    __glewPointParameteriv @2804 DATA
    __glewPointParameterivNV @2805 DATA
    __glewPollAsyncSGIX @2806 DATA
    __glewPolygonOffsetEXT @2807 DATA
    __glewPopGroupMarkerEXT @2808 DATA
    __glewPresentFrameDualFillNV @2809 DATA
    __glewPresentFrameKeyedNV @2810 DATA
    __glewPrimitiveRestartIndex @2811 DATA
    __glewPrimitiveRestartIndexNV @2812 DATA
    __glewPrimitiveRestartNV @2813 DATA
    __glewPrioritizeTexturesEXT @2814 DATA
    __glewProgramBinary @2815 DATA
    __glewProgramBufferParametersIivNV @2816 DATA
    __glewProgramBufferParametersIuivNV @2817 DATA
    __glewProgramBufferParametersfvNV @2818 DATA
    __glewProgramEnvParameter4dARB @2819 DATA
    __glewProgramEnvParameter4dvARB @2820 DATA
    __glewProgramEnvParameter4fARB @2821 DATA
    __glewProgramEnvParameter4fvARB @2822 DATA
    __glewProgramEnvParameterI4iNV @2823 DATA
    __glewProgramEnvParameterI4ivNV @2824 DATA
    __glewProgramEnvParameterI4uiNV @2825 DATA
    __glewProgramEnvParameterI4uivNV @2826 DATA
    __glewProgramEnvParameters4fvEXT @2827 DATA
    __glewProgramEnvParametersI4ivNV @2828 DATA
    __glewProgramEnvParametersI4uivNV @2829 DATA
    __glewProgramLocalParameter4dARB @2830 DATA
    __glewProgramLocalParameter4dvARB @2831 DATA
    __glewProgramLocalParameter4fARB @2832 DATA
    __glewProgramLocalParameter4fvARB @2833 DATA
    __glewProgramLocalParameterI4iNV @2834 DATA
    __glewProgramLocalParameterI4ivNV @2835 DATA
    __glewProgramLocalParameterI4uiNV @2836 DATA
    __glewProgramLocalParameterI4uivNV @2837 DATA
    __glewProgramLocalParameters4fvEXT @2838 DATA
    __glewProgramLocalParametersI4ivNV @2839 DATA
    __glewProgramLocalParametersI4uivNV @2840 DATA
    __glewProgramNamedParameter4dNV @2841 DATA
    __glewProgramNamedParameter4dvNV @2842 DATA
    __glewProgramNamedParameter4fNV @2843 DATA
    __glewProgramNamedParameter4fvNV @2844 DATA
    __glewProgramParameter4dNV @2845 DATA
    __glewProgramParameter4dvNV @2846 DATA
    __glewProgramParameter4fNV @2847 DATA
    __glewProgramParameter4fvNV @2848 DATA
    __glewProgramParameteri @2849 DATA
    __glewProgramParameteriARB @2850 DATA
    __glewProgramParameteriEXT @2851 DATA
    __glewProgramParameters4dvNV @2852 DATA
    __glewProgramParameters4fvNV @2853 DATA
    __glewProgramStringARB @2854 DATA
    __glewProgramUniform1d @2855 DATA
    __glewProgramUniform1dEXT @2856 DATA
    __glewProgramUniform1dv @2857 DATA
    __glewProgramUniform1dvEXT @2858 DATA
    __glewProgramUniform1f @2859 DATA
    __glewProgramUniform1fEXT @2860 DATA
    __glewProgramUniform1fv @2861 DATA
    __glewProgramUniform1fvEXT @2862 DATA
    __glewProgramUniform1i @2863 DATA
    __glewProgramUniform1i64NV @2864 DATA
    __glewProgramUniform1i64vNV @2865 DATA
    __glewProgramUniform1iEXT @2866 DATA
    __glewProgramUniform1iv @2867 DATA
    __glewProgramUniform1ivEXT @2868 DATA
    __glewProgramUniform1ui @2869 DATA
    __glewProgramUniform1ui64NV @2870 DATA
    __glewProgramUniform1ui64vNV @2871 DATA
    __glewProgramUniform1uiEXT @2872 DATA
    __glewProgramUniform1uiv @2873 DATA
    __glewProgramUniform1uivEXT @2874 DATA
    __glewProgramUniform2d @2875 DATA
    __glewProgramUniform2dEXT @2876 DATA
    __glewProgramUniform2dv @2877 DATA
    __glewProgramUniform2dvEXT @2878 DATA
    __glewProgramUniform2f @2879 DATA
    __glewProgramUniform2fEXT @2880 DATA
    __glewProgramUniform2fv @2881 DATA
    __glewProgramUniform2fvEXT @2882 DATA
    __glewProgramUniform2i @2883 DATA
    __glewProgramUniform2i64NV @2884 DATA
    __glewProgramUniform2i64vNV @2885 DATA
    __glewProgramUniform2iEXT @2886 DATA
    __glewProgramUniform2iv @2887 DATA
    __glewProgramUniform2ivEXT @2888 DATA
    __glewProgramUniform2ui @2889 DATA
    __glewProgramUniform2ui64NV @2890 DATA
    __glewProgramUniform2ui64vNV @2891 DATA
    __glewProgramUniform2uiEXT @2892 DATA
    __glewProgramUniform2uiv @2893 DATA
    __glewProgramUniform2uivEXT @2894 DATA
    __glewProgramUniform3d @2895 DATA
    __glewProgramUniform3dEXT @2896 DATA
    __glewProgramUniform3dv @2897 DATA
    __glewProgramUniform3dvEXT @2898 DATA
    __glewProgramUniform3f @2899 DATA
    __glewProgramUniform3fEXT @2900 DATA
    __glewProgramUniform3fv @2901 DATA
    __glewProgramUniform3fvEXT @2902 DATA
    __glewProgramUniform3i @2903 DATA
    __glewProgramUniform3i64NV @2904 DATA
    __glewProgramUniform3i64vNV @2905 DATA
    __glewProgramUniform3iEXT @2906 DATA
    __glewProgramUniform3iv @2907 DATA
    __glewProgramUniform3ivEXT @2908 DATA
    __glewProgramUniform3ui @2909 DATA
    __glewProgramUniform3ui64NV @2910 DATA
    __glewProgramUniform3ui64vNV @2911 DATA
    __glewProgramUniform3uiEXT @2912 DATA
    __glewProgramUniform3uiv @2913 DATA
    __glewProgramUniform3uivEXT @2914 DATA
    __glewProgramUniform4d @2915 DATA
    __glewProgramUniform4dEXT @2916 DATA
    __glewProgramUniform4dv @2917 DATA
    __glewProgramUniform4dvEXT @2918 DATA
    __glewProgramUniform4f @2919 DATA
    __glewProgramUniform4fEXT @2920 DATA
    __glewProgramUniform4fv @2921 DATA
    __glewProgramUniform4fvEXT @2922 DATA
    __glewProgramUniform4i @2923 DATA
    __glewProgramUniform4i64NV @2924 DATA
    __glewProgramUniform4i64vNV @2925 DATA
    __glewProgramUniform4iEXT @2926 DATA
    __glewProgramUniform4iv @2927 DATA
    __glewProgramUniform4ivEXT @2928 DATA
    __glewProgramUniform4ui @2929 DATA
    __glewProgramUniform4ui64NV @2930 DATA
    __glewProgramUniform4ui64vNV @2931 DATA
    __glewProgramUniform4uiEXT @2932 DATA
    __glewProgramUniform4uiv @2933 DATA
    __glewProgramUniform4uivEXT @2934 DATA
    __glewProgramUniformHandleui64NV @2935 DATA
    __glewProgramUniformHandleui64vNV @2936 DATA
    __glewProgramUniformMatrix2dv @2937 DATA
    __glewProgramUniformMatrix2dvEXT @2938 DATA
    __glewProgramUniformMatrix2fv @2939 DATA
    __glewProgramUniformMatrix2fvEXT @2940 DATA
    __glewProgramUniformMatrix2x3dv @2941 DATA
    __glewProgramUniformMatrix2x3dvEXT @2942 DATA
    __glewProgramUniformMatrix2x3fv @2943 DATA
    __glewProgramUniformMatrix2x3fvEXT @2944 DATA
    __glewProgramUniformMatrix2x4dv @2945 DATA
    __glewProgramUniformMatrix2x4dvEXT @2946 DATA
    __glewProgramUniformMatrix2x4fv @2947 DATA
    __glewProgramUniformMatrix2x4fvEXT @2948 DATA
    __glewProgramUniformMatrix3dv @2949 DATA
    __glewProgramUniformMatrix3dvEXT @2950 DATA
    __glewProgramUniformMatrix3fv @2951 DATA
    __glewProgramUniformMatrix3fvEXT @2952 DATA
    __glewProgramUniformMatrix3x2dv @2953 DATA
    __glewProgramUniformMatrix3x2dvEXT @2954 DATA
    __glewProgramUniformMatrix3x2fv @2955 DATA
    __glewProgramUniformMatrix3x2fvEXT @2956 DATA
    __glewProgramUniformMatrix3x4dv @2957 DATA
    __glewProgramUniformMatrix3x4dvEXT @2958 DATA
    __glewProgramUniformMatrix3x4fv @2959 DATA
    __glewProgramUniformMatrix3x4fvEXT @2960 DATA
    __glewProgramUniformMatrix4dv @2961 DATA
    __glewProgramUniformMatrix4dvEXT @2962 DATA
    __glewProgramUniformMatrix4fv @2963 DATA
    __glewProgramUniformMatrix4fvEXT @2964 DATA
    __glewProgramUniformMatrix4x2dv @2965 DATA
    __glewProgramUniformMatrix4x2dvEXT @2966 DATA
    __glewProgramUniformMatrix4x2fv @2967 DATA
    __glewProgramUniformMatrix4x2fvEXT @2968 DATA
    __glewProgramUniformMatrix4x3dv @2969 DATA
    __glewProgramUniformMatrix4x3dvEXT @2970 DATA
    __glewProgramUniformMatrix4x3fv @2971 DATA
    __glewProgramUniformMatrix4x3fvEXT @2972 DATA
    __glewProgramUniformui64NV @2973 DATA
    __glewProgramUniformui64vNV @2974 DATA
    __glewProgramVertexLimitNV @2975 DATA
    __glewProvokingVertex @2976 DATA
    __glewProvokingVertexEXT @2977 DATA
    __glewPushClientAttribDefaultEXT @2978 DATA
    __glewPushDebugGroup @2979 DATA
    __glewPushGroupMarkerEXT @2980 DATA
    __glewQueryCounter @2981 DATA
    __glewReadBufferRegion @2982 DATA
    __glewReadVideoPixelsSUN @2983 DATA
    __glewReadnPixelsARB @2984 DATA
    __glewReferencePlaneSGIX @2985 DATA
    __glewReleaseShaderCompiler @2986 DATA
    __glewRenderbufferStorage @2987 DATA
    __glewRenderbufferStorageEXT @2988 DATA
    __glewRenderbufferStorageMultisample @2989 DATA
    __glewRenderbufferStorageMultisampleCoverageNV @2990 DATA
    __glewRenderbufferStorageMultisampleEXT @2991 DATA
    __glewReplacementCodePointerSUN @2992 DATA
    __glewReplacementCodeubSUN @2993 DATA
    __glewReplacementCodeubvSUN @2994 DATA
    __glewReplacementCodeuiColor3fVertex3fSUN @2995 DATA
    __glewReplacementCodeuiColor3fVertex3fvSUN @2996 DATA
    __glewReplacementCodeuiColor4fNormal3fVertex3fSUN @2997 DATA
    __glewReplacementCodeuiColor4fNormal3fVertex3fvSUN @2998 DATA
    __glewReplacementCodeuiColor4ubVertex3fSUN @2999 DATA
    __glewReplacementCodeuiColor4ubVertex3fvSUN @3000 DATA
    __glewReplacementCodeuiNormal3fVertex3fSUN @3001 DATA
    __glewReplacementCodeuiNormal3fVertex3fvSUN @3002 DATA
    __glewReplacementCodeuiSUN @3003 DATA
    __glewReplacementCodeuiTexCoord2fColor4fNormal3fVertex3fSUN @3004 DATA
    __glewReplacementCodeuiTexCoord2fColor4fNormal3fVertex3fvSUN @3005 DATA
    __glewReplacementCodeuiTexCoord2fNormal3fVertex3fSUN @3006 DATA
    __glewReplacementCodeuiTexCoord2fNormal3fVertex3fvSUN @3007 DATA
    __glewReplacementCodeuiTexCoord2fVertex3fSUN @3008 DATA
    __glewReplacementCodeuiTexCoord2fVertex3fvSUN @3009 DATA
    __glewReplacementCodeuiVertex3fSUN @3010 DATA
    __glewReplacementCodeuiVertex3fvSUN @3011 DATA
    __glewReplacementCodeuivSUN @3012 DATA
    __glewReplacementCodeusSUN @3013 DATA
    __glewReplacementCodeusvSUN @3014 DATA
    __glewRequestResidentProgramsNV @3015 DATA
    __glewResetHistogram @3016 DATA
    __glewResetHistogramEXT @3017 DATA
    __glewResetMinmax @3018 DATA
    __glewResetMinmaxEXT @3019 DATA
    __glewResizeBuffersMESA @3020 DATA
    __glewResumeTransformFeedback @3021 DATA
    __glewResumeTransformFeedbackNV @3022 DATA
    __glewSampleCoverage @3023 DATA
    __glewSampleCoverageARB @3024 DATA
    __glewSampleMapATI @3025 DATA
    __glewSampleMaskEXT @3026 DATA
    __glewSampleMaskIndexedNV @3027 DATA
    __glewSampleMaskSGIS @3028 DATA
    __glewSampleMaski @3029 DATA
    __glewSamplePatternEXT @3030 DATA
    __glewSamplePatternSGIS @3031 DATA
    __glewSamplerParameterIiv @3032 DATA
    __glewSamplerParameterIuiv @3033 DATA
    __glewSamplerParameterf @3034 DATA
    __glewSamplerParameterfv @3035 DATA
    __glewSamplerParameteri @3036 DATA
    __glewSamplerParameteriv @3037 DATA
    __glewScissorArrayv @3038 DATA
    __glewScissorIndexed @3039 DATA
    __glewScissorIndexedv @3040 DATA
    __glewSecondaryColor3b @3041 DATA
    __glewSecondaryColor3bEXT @3042 DATA
    __glewSecondaryColor3bv @3043 DATA
    __glewSecondaryColor3bvEXT @3044 DATA
    __glewSecondaryColor3d @3045 DATA
    __glewSecondaryColor3dEXT @3046 DATA
    __glewSecondaryColor3dv @3047 DATA
    __glewSecondaryColor3dvEXT @3048 DATA
    __glewSecondaryColor3f @3049 DATA
    __glewSecondaryColor3fEXT @3050 DATA
    __glewSecondaryColor3fv @3051 DATA
    __glewSecondaryColor3fvEXT @3052 DATA
    __glewSecondaryColor3hNV @3053 DATA
    __glewSecondaryColor3hvNV @3054 DATA
    __glewSecondaryColor3i @3055 DATA
    __glewSecondaryColor3iEXT @3056 DATA
    __glewSecondaryColor3iv @3057 DATA
    __glewSecondaryColor3ivEXT @3058 DATA
    __glewSecondaryColor3s @3059 DATA
    __glewSecondaryColor3sEXT @3060 DATA
    __glewSecondaryColor3sv @3061 DATA
    __glewSecondaryColor3svEXT @3062 DATA
    __glewSecondaryColor3ub @3063 DATA
    __glewSecondaryColor3ubEXT @3064 DATA
    __glewSecondaryColor3ubv @3065 DATA
    __glewSecondaryColor3ubvEXT @3066 DATA
    __glewSecondaryColor3ui @3067 DATA
    __glewSecondaryColor3uiEXT @3068 DATA
    __glewSecondaryColor3uiv @3069 DATA
    __glewSecondaryColor3uivEXT @3070 DATA
    __glewSecondaryColor3us @3071 DATA
    __glewSecondaryColor3usEXT @3072 DATA
    __glewSecondaryColor3usv @3073 DATA
    __glewSecondaryColor3usvEXT @3074 DATA
    __glewSecondaryColorFormatNV @3075 DATA
    __glewSecondaryColorP3ui @3076 DATA
    __glewSecondaryColorP3uiv @3077 DATA
    __glewSecondaryColorPointer @3078 DATA
    __glewSecondaryColorPointerEXT @3079 DATA
    __glewSecondaryColorPointerListIBM @3080 DATA
    __glewSelectPerfMonitorCountersAMD @3081 DATA
    __glewSeparableFilter2D @3082 DATA
    __glewSeparableFilter2DEXT @3083 DATA
    __glewSetFenceAPPLE @3084 DATA
    __glewSetFenceNV @3085 DATA
    __glewSetFragmentShaderConstantATI @3086 DATA
    __glewSetInvariantEXT @3087 DATA
    __glewSetLocalConstantEXT @3088 DATA
    __glewSetMultisamplefvAMD @3089 DATA
    __glewShaderBinary @3090 DATA
    __glewShaderOp1EXT @3091 DATA
    __glewShaderOp2EXT @3092 DATA
    __glewShaderOp3EXT @3093 DATA
    __glewShaderSource @3094 DATA
    __glewShaderSourceARB @3095 DATA
    __glewShaderStorageBlockBinding @3096 DATA
    __glewSharpenTexFuncSGIS @3097 DATA
    __glewSpriteParameterfSGIX @3098 DATA
    __glewSpriteParameterfvSGIX @3099 DATA
    __glewSpriteParameteriSGIX @3100 DATA
    __glewSpriteParameterivSGIX @3101 DATA
    __glewStencilFillPathInstancedNV @3102 DATA
    __glewStencilFillPathNV @3103 DATA
    __glewStencilFuncSeparate @3104 DATA
    __glewStencilFuncSeparateATI @3105 DATA
    __glewStencilMaskSeparate @3106 DATA
    __glewStencilOpSeparate @3107 DATA
    __glewStencilOpSeparateATI @3108 DATA
    __glewStencilOpValueAMD @3109 DATA
    __glewStencilStrokePathInstancedNV @3110 DATA
    __glewStencilStrokePathNV @3111 DATA
    __glewStringMarkerGREMEDY @3112 DATA
    __glewSwizzleEXT @3113 DATA
    __glewTagSampleBufferSGIX @3114 DATA
    __glewTangentPointerEXT @3115 DATA
    __glewTbufferMask3DFX @3116 DATA
    __glewTessellationFactorAMD @3117 DATA
    __glewTessellationModeAMD @3118 DATA
    __glewTestFenceAPPLE @3119 DATA
    __glewTestFenceNV @3120 DATA
    __glewTestObjectAPPLE @3121 DATA
    __glewTexBuffer @3122 DATA
    __glewTexBufferARB @3123 DATA
    __glewTexBufferEXT @3124 DATA
    __glewTexBufferRange @3125 DATA
    __glewTexBumpParameterfvATI @3126 DATA
    __glewTexBumpParameterivATI @3127 DATA
    __glewTexCoord1hNV @3128 DATA
    __glewTexCoord1hvNV @3129 DATA
    __glewTexCoord2fColor3fVertex3fSUN @3130 DATA
    __glewTexCoord2fColor3fVertex3fvSUN @3131 DATA
    __glewTexCoord2fColor4fNormal3fVertex3fSUN @3132 DATA
    __glewTexCoord2fColor4fNormal3fVertex3fvSUN @3133 DATA
    __glewTexCoord2fColor4ubVertex3fSUN @3134 DATA
    __glewTexCoord2fColor4ubVertex3fvSUN @3135 DATA
    __glewTexCoord2fNormal3fVertex3fSUN @3136 DATA
    __glewTexCoord2fNormal3fVertex3fvSUN @3137 DATA
    __glewTexCoord2fVertex3fSUN @3138 DATA
    __glewTexCoord2fVertex3fvSUN @3139 DATA
    __glewTexCoord2hNV @3140 DATA
    __glewTexCoord2hvNV @3141 DATA
    __glewTexCoord3hNV @3142 DATA
    __glewTexCoord3hvNV @3143 DATA
    __glewTexCoord4fColor4fNormal3fVertex4fSUN @3144 DATA
    __glewTexCoord4fColor4fNormal3fVertex4fvSUN @3145 DATA
    __glewTexCoord4fVertex4fSUN @3146 DATA
    __glewTexCoord4fVertex4fvSUN @3147 DATA
    __glewTexCoord4hNV @3148 DATA
    __glewTexCoord4hvNV @3149 DATA
    __glewTexCoordFormatNV @3150 DATA
    __glewTexCoordP1ui @3151 DATA
    __glewTexCoordP1uiv @3152 DATA
    __glewTexCoordP2ui @3153 DATA
    __glewTexCoordP2uiv @3154 DATA
    __glewTexCoordP3ui @3155 DATA
    __glewTexCoordP3uiv @3156 DATA
    __glewTexCoordP4ui @3157 DATA
    __glewTexCoordP4uiv @3158 DATA
    __glewTexCoordPointerEXT @3159 DATA
    __glewTexCoordPointerListIBM @3160 DATA
    __glewTexCoordPointervINTEL @3161 DATA
    __glewTexFilterFuncSGIS @3162 DATA
    __glewTexImage2DMultisample @3163 DATA
    __glewTexImage2DMultisampleCoverageNV @3164 DATA
    __glewTexImage3D @3165 DATA
    __glewTexImage3DEXT @3166 DATA
    __glewTexImage3DMultisample @3167 DATA
    __glewTexImage3DMultisampleCoverageNV @3168 DATA
    __glewTexImage4DSGIS @3169 DATA
    __glewTexParameterIiv @3170 DATA
    __glewTexParameterIivEXT @3171 DATA
    __glewTexParameterIuiv @3172 DATA
    __glewTexParameterIuivEXT @3173 DATA
    __glewTexRenderbufferNV @3174 DATA
    __glewTexScissorFuncINTEL @3175 DATA
    __glewTexScissorINTEL @3176 DATA
    __glewTexStorage1D @3177 DATA
    __glewTexStorage2D @3178 DATA
    __glewTexStorage2DMultisample @3179 DATA
    __glewTexStorage3D @3180 DATA
    __glewTexStorage3DMultisample @3181 DATA
    __glewTexSubImage1DEXT @3182 DATA
    __glewTexSubImage2DEXT @3183 DATA
    __glewTexSubImage3D @3184 DATA
    __glewTexSubImage3DEXT @3185 DATA
    __glewTexSubImage4DSGIS @3186 DATA
    __glewTextureBarrierNV @3187 DATA
    __glewTextureBufferEXT @3188 DATA
    __glewTextureBufferRangeEXT @3189 DATA
    __glewTextureFogSGIX @3190 DATA
    __glewTextureImage1DEXT @3191 DATA
    __glewTextureImage2DEXT @3192 DATA
    __glewTextureImage2DMultisampleCoverageNV @3193 DATA
    __glewTextureImage2DMultisampleNV @3194 DATA
    __glewTextureImage3DEXT @3195 DATA
    __glewTextureImage3DMultisampleCoverageNV @3196 DATA
    __glewTextureImage3DMultisampleNV @3197 DATA
    __glewTextureLightEXT @3198 DATA
    __glewTextureMaterialEXT @3199 DATA
    __glewTextureNormalEXT @3200 DATA
    __glewTextureParameterIivEXT @3201 DATA
    __glewTextureParameterIuivEXT @3202 DATA
    __glewTextureParameterfEXT @3203 DATA
    __glewTextureParameterfvEXT @3204 DATA
    __glewTextureParameteriEXT @3205 DATA
    __glewTextureParameterivEXT @3206 DATA
    __glewTextureRangeAPPLE @3207 DATA
    __glewTextureRenderbufferEXT @3208 DATA
    __glewTextureStorage1DEXT @3209 DATA
    __glewTextureStorage2DEXT @3210 DATA
    __glewTextureStorage2DMultisampleEXT @3211 DATA
    __glewTextureStorage3DEXT @3212 DATA
    __glewTextureStorage3DMultisampleEXT @3213 DATA
    __glewTextureSubImage1DEXT @3214 DATA
    __glewTextureSubImage2DEXT @3215 DATA
    __glewTextureSubImage3DEXT @3216 DATA
    __glewTextureView @3217 DATA
    __glewTrackMatrixNV @3218 DATA
    __glewTransformFeedbackAttribsNV @3219 DATA
    __glewTransformFeedbackVaryings @3220 DATA
    __glewTransformFeedbackVaryingsEXT @3221 DATA
    __glewTransformFeedbackVaryingsNV @3222 DATA
    __glewTransformPathNV @3223 DATA
    __glewUniform1d @3224 DATA
    __glewUniform1dv @3225 DATA
    __glewUniform1f @3226 DATA
    __glewUniform1fARB @3227 DATA
    __glewUniform1fv @3228 DATA
    __glewUniform1fvARB @3229 DATA
    __glewUniform1i @3230 DATA
    __glewUniform1i64NV @3231 DATA
    __glewUniform1i64vNV @3232 DATA
    __glewUniform1iARB @3233 DATA
    __glewUniform1iv @3234 DATA
    __glewUniform1ivARB @3235 DATA
    __glewUniform1ui @3236 DATA
    __glewUniform1ui64NV @3237 DATA
    __glewUniform1ui64vNV @3238 DATA
    __glewUniform1uiEXT @3239 DATA
    __glewUniform1uiv @3240 DATA
    __glewUniform1uivEXT @3241 DATA
    __glewUniform2d @3242 DATA
    __glewUniform2dv @3243 DATA
    __glewUniform2f @3244 DATA
    __glewUniform2fARB @3245 DATA
    __glewUniform2fv @3246 DATA
    __glewUniform2fvARB @3247 DATA
    __glewUniform2i @3248 DATA
    __glewUniform2i64NV @3249 DATA
    __glewUniform2i64vNV @3250 DATA
    __glewUniform2iARB @3251 DATA
    __glewUniform2iv @3252 DATA
    __glewUniform2ivARB @3253 DATA
    __glewUniform2ui @3254 DATA
    __glewUniform2ui64NV @3255 DATA
    __glewUniform2ui64vNV @3256 DATA
    __glewUniform2uiEXT @3257 DATA
    __glewUniform2uiv @3258 DATA
    __glewUniform2uivEXT @3259 DATA
    __glewUniform3d @3260 DATA
    __glewUniform3dv @3261 DATA
    __glewUniform3f @3262 DATA
    __glewUniform3fARB @3263 DATA
    __glewUniform3fv @3264 DATA
    __glewUniform3fvARB @3265 DATA
    __glewUniform3i @3266 DATA
    __glewUniform3i64NV @3267 DATA
    __glewUniform3i64vNV @3268 DATA
    __glewUniform3iARB @3269 DATA
    __glewUniform3iv @3270 DATA
    __glewUniform3ivARB @3271 DATA
    __glewUniform3ui @3272 DATA
    __glewUniform3ui64NV @3273 DATA
    __glewUniform3ui64vNV @3274 DATA
    __glewUniform3uiEXT @3275 DATA
    __glewUniform3uiv @3276 DATA
    __glewUniform3uivEXT @3277 DATA
    __glewUniform4d @3278 DATA
    __glewUniform4dv @3279 DATA
    __glewUniform4f @3280 DATA
    __glewUniform4fARB @3281 DATA
    __glewUniform4fv @3282 DATA
    __glewUniform4fvARB @3283 DATA
    __glewUniform4i @3284 DATA
    __glewUniform4i64NV @3285 DATA
    __glewUniform4i64vNV @3286 DATA
    __glewUniform4iARB @3287 DATA
    __glewUniform4iv @3288 DATA
    __glewUniform4ivARB @3289 DATA
    __glewUniform4ui @3290 DATA
    __glewUniform4ui64NV @3291 DATA
    __glewUniform4ui64vNV @3292 DATA
    __glewUniform4uiEXT @3293 DATA
    __glewUniform4uiv @3294 DATA
    __glewUniform4uivEXT @3295 DATA
    __glewUniformBlockBinding @3296 DATA
    __glewUniformBufferEXT @3297 DATA
    __glewUniformHandleui64NV @3298 DATA
    __glewUniformHandleui64vNV @3299 DATA
    __glewUniformMatrix2dv @3300 DATA
    __glewUniformMatrix2fv @3301 DATA
    __glewUniformMatrix2fvARB @3302 DATA
    __glewUniformMatrix2x3dv @3303 DATA
    __glewUniformMatrix2x3fv @3304 DATA
    __glewUniformMatrix2x4dv @3305 DATA
    __glewUniformMatrix2x4fv @3306 DATA
    __glewUniformMatrix3dv @3307 DATA
    __glewUniformMatrix3fv @3308 DATA
    __glewUniformMatrix3fvARB @3309 DATA
    __glewUniformMatrix3x2dv @3310 DATA
    __glewUniformMatrix3x2fv @3311 DATA
    __glewUniformMatrix3x4dv @3312 DATA
    __glewUniformMatrix3x4fv @3313 DATA
    __glewUniformMatrix4dv @3314 DATA
    __glewUniformMatrix4fv @3315 DATA
    __glewUniformMatrix4fvARB @3316 DATA
    __glewUniformMatrix4x2dv @3317 DATA
    __glewUniformMatrix4x2fv @3318 DATA
    __glewUniformMatrix4x3dv @3319 DATA
    __glewUniformMatrix4x3fv @3320 DATA
    __glewUniformSubroutinesuiv @3321 DATA
    __glewUniformui64NV @3322 DATA
    __glewUniformui64vNV @3323 DATA
    __glewUnlockArraysEXT @3324 DATA
    __glewUnmapBuffer @3325 DATA
    __glewUnmapBufferARB @3326 DATA
    __glewUnmapNamedBufferEXT @3327 DATA
    __glewUnmapObjectBufferATI @3328 DATA
    __glewUpdateObjectBufferATI @3329 DATA
    __glewUseProgram @3330 DATA
    __glewUseProgramObjectARB @3331 DATA
    __glewUseProgramStages @3332 DATA
    __glewUseShaderProgramEXT @3333 DATA
    __glewVDPAUFiniNV @3334 DATA
    __glewVDPAUGetSurfaceivNV @3335 DATA
    __glewVDPAUInitNV @3336 DATA
    __glewVDPAUIsSurfaceNV @3337 DATA
    __glewVDPAUMapSurfacesNV @3338 DATA
    __glewVDPAURegisterOutputSurfaceNV @3339 DATA
    __glewVDPAURegisterVideoSurfaceNV @3340 DATA
    __glewVDPAUSurfaceAccessNV @3341 DATA
    __glewVDPAUUnmapSurfacesNV @3342 DATA
    __glewVDPAUUnregisterSurfaceNV @3343 DATA
    __glewValidateProgram @3344 DATA
    __glewValidateProgramARB @3345 DATA
    __glewValidateProgramPipeline @3346 DATA
    __glewVariantArrayObjectATI @3347 DATA
    __glewVariantPointerEXT @3348 DATA
    __glewVariantbvEXT @3349 DATA
    __glewVariantdvEXT @3350 DATA
    __glewVariantfvEXT @3351 DATA
    __glewVariantivEXT @3352 DATA
    __glewVariantsvEXT @3353 DATA
    __glewVariantubvEXT @3354 DATA
    __glewVariantuivEXT @3355 DATA
    __glewVariantusvEXT @3356 DATA
    __glewVertex2hNV @3357 DATA
    __glewVertex2hvNV @3358 DATA
    __glewVertex3hNV @3359 DATA
    __glewVertex3hvNV @3360 DATA
    __glewVertex4hNV @3361 DATA
    __glewVertex4hvNV @3362 DATA
    __glewVertexArrayColorOffsetEXT @3363 DATA
    __glewVertexArrayEdgeFlagOffsetEXT @3364 DATA
    __glewVertexArrayFogCoordOffsetEXT @3365 DATA
    __glewVertexArrayIndexOffsetEXT @3366 DATA
    __glewVertexArrayMultiTexCoordOffsetEXT @3367 DATA
    __glewVertexArrayNormalOffsetEXT @3368 DATA
    __glewVertexArrayParameteriAPPLE @3369 DATA
    __glewVertexArrayRangeAPPLE @3370 DATA
    __glewVertexArrayRangeNV @3371 DATA
    __glewVertexArraySecondaryColorOffsetEXT @3372 DATA
    __glewVertexArrayTexCoordOffsetEXT @3373 DATA
    __glewVertexArrayVertexAttribIOffsetEXT @3374 DATA
    __glewVertexArrayVertexAttribLOffsetEXT @3375 DATA
    __glewVertexArrayVertexAttribOffsetEXT @3376 DATA
    __glewVertexArrayVertexOffsetEXT @3377 DATA
    __glewVertexAttrib1d @3378 DATA
    __glewVertexAttrib1dARB @3379 DATA
    __glewVertexAttrib1dNV @3380 DATA
    __glewVertexAttrib1dv @3381 DATA
    __glewVertexAttrib1dvARB @3382 DATA
    __glewVertexAttrib1dvNV @3383 DATA
    __glewVertexAttrib1f @3384 DATA
    __glewVertexAttrib1fARB @3385 DATA
    __glewVertexAttrib1fNV @3386 DATA
    __glewVertexAttrib1fv @3387 DATA
    __glewVertexAttrib1fvARB @3388 DATA
    __glewVertexAttrib1fvNV @3389 DATA
    __glewVertexAttrib1hNV @3390 DATA
    __glewVertexAttrib1hvNV @3391 DATA
    __glewVertexAttrib1s @3392 DATA
    __glewVertexAttrib1sARB @3393 DATA
    __glewVertexAttrib1sNV @3394 DATA
    __glewVertexAttrib1sv @3395 DATA
    __glewVertexAttrib1svARB @3396 DATA
    __glewVertexAttrib1svNV @3397 DATA
    __glewVertexAttrib2d @3398 DATA
    __glewVertexAttrib2dARB @3399 DATA
    __glewVertexAttrib2dNV @3400 DATA
    __glewVertexAttrib2dv @3401 DATA
    __glewVertexAttrib2dvARB @3402 DATA
    __glewVertexAttrib2dvNV @3403 DATA
    __glewVertexAttrib2f @3404 DATA
    __glewVertexAttrib2fARB @3405 DATA
    __glewVertexAttrib2fNV @3406 DATA
    __glewVertexAttrib2fv @3407 DATA
    __glewVertexAttrib2fvARB @3408 DATA
    __glewVertexAttrib2fvNV @3409 DATA
    __glewVertexAttrib2hNV @3410 DATA
    __glewVertexAttrib2hvNV @3411 DATA
    __glewVertexAttrib2s @3412 DATA
    __glewVertexAttrib2sARB @3413 DATA
    __glewVertexAttrib2sNV @3414 DATA
    __glewVertexAttrib2sv @3415 DATA
    __glewVertexAttrib2svARB @3416 DATA
    __glewVertexAttrib2svNV @3417 DATA
    __glewVertexAttrib3d @3418 DATA
    __glewVertexAttrib3dARB @3419 DATA
    __glewVertexAttrib3dNV @3420 DATA
    __glewVertexAttrib3dv @3421 DATA
    __glewVertexAttrib3dvARB @3422 DATA
    __glewVertexAttrib3dvNV @3423 DATA
    __glewVertexAttrib3f @3424 DATA
    __glewVertexAttrib3fARB @3425 DATA
    __glewVertexAttrib3fNV @3426 DATA
    __glewVertexAttrib3fv @3427 DATA
    __glewVertexAttrib3fvARB @3428 DATA
    __glewVertexAttrib3fvNV @3429 DATA
    __glewVertexAttrib3hNV @3430 DATA
    __glewVertexAttrib3hvNV @3431 DATA
    __glewVertexAttrib3s @3432 DATA
    __glewVertexAttrib3sARB @3433 DATA
    __glewVertexAttrib3sNV @3434 DATA
    __glewVertexAttrib3sv @3435 DATA
    __glewVertexAttrib3svARB @3436 DATA
    __glewVertexAttrib3svNV @3437 DATA
    __glewVertexAttrib4Nbv @3438 DATA
    __glewVertexAttrib4NbvARB @3439 DATA
    __glewVertexAttrib4Niv @3440 DATA
    __glewVertexAttrib4NivARB @3441 DATA
    __glewVertexAttrib4Nsv @3442 DATA
    __glewVertexAttrib4NsvARB @3443 DATA
    __glewVertexAttrib4Nub @3444 DATA
    __glewVertexAttrib4NubARB @3445 DATA
    __glewVertexAttrib4Nubv @3446 DATA
    __glewVertexAttrib4NubvARB @3447 DATA
    __glewVertexAttrib4Nuiv @3448 DATA
    __glewVertexAttrib4NuivARB @3449 DATA
    __glewVertexAttrib4Nusv @3450 DATA
    __glewVertexAttrib4NusvARB @3451 DATA
    __glewVertexAttrib4bv @3452 DATA
    __glewVertexAttrib4bvARB @3453 DATA
    __glewVertexAttrib4d @3454 DATA
    __glewVertexAttrib4dARB @3455 DATA
    __glewVertexAttrib4dNV @3456 DATA
    __glewVertexAttrib4dv @3457 DATA
    __glewVertexAttrib4dvARB @3458 DATA
    __glewVertexAttrib4dvNV @3459 DATA
    __glewVertexAttrib4f @3460 DATA
    __glewVertexAttrib4fARB @3461 DATA
    __glewVertexAttrib4fNV @3462 DATA
    __glewVertexAttrib4fv @3463 DATA
    __glewVertexAttrib4fvARB @3464 DATA
    __glewVertexAttrib4fvNV @3465 DATA
    __glewVertexAttrib4hNV @3466 DATA
    __glewVertexAttrib4hvNV @3467 DATA
    __glewVertexAttrib4iv @3468 DATA
    __glewVertexAttrib4ivARB @3469 DATA
    __glewVertexAttrib4s @3470 DATA
    __glewVertexAttrib4sARB @3471 DATA
    __glewVertexAttrib4sNV @3472 DATA
    __glewVertexAttrib4sv @3473 DATA
    __glewVertexAttrib4svARB @3474 DATA
    __glewVertexAttrib4svNV @3475 DATA
    __glewVertexAttrib4ubNV @3476 DATA
    __glewVertexAttrib4ubv @3477 DATA
    __glewVertexAttrib4ubvARB @3478 DATA
    __glewVertexAttrib4ubvNV @3479 DATA
    __glewVertexAttrib4uiv @3480 DATA
    __glewVertexAttrib4uivARB @3481 DATA
    __glewVertexAttrib4usv @3482 DATA
    __glewVertexAttrib4usvARB @3483 DATA
    __glewVertexAttribArrayObjectATI @3484 DATA
    __glewVertexAttribBinding @3485 DATA
    __glewVertexAttribDivisor @3486 DATA
    __glewVertexAttribDivisorARB @3487 DATA
    __glewVertexAttribFormat @3488 DATA
    __glewVertexAttribFormatNV @3489 DATA
    __glewVertexAttribI1i @3490 DATA
    __glewVertexAttribI1iEXT @3491 DATA
    __glewVertexAttribI1iv @3492 DATA
    __glewVertexAttribI1ivEXT @3493 DATA
    __glewVertexAttribI1ui @3494 DATA
    __glewVertexAttribI1uiEXT @3495 DATA
    __glewVertexAttribI1uiv @3496 DATA
    __glewVertexAttribI1uivEXT @3497 DATA
    __glewVertexAttribI2i @3498 DATA
    __glewVertexAttribI2iEXT @3499 DATA
    __glewVertexAttribI2iv @3500 DATA
    __glewVertexAttribI2ivEXT @3501 DATA
    __glewVertexAttribI2ui @3502 DATA
    __glewVertexAttribI2uiEXT @3503 DATA
    __glewVertexAttribI2uiv @3504 DATA
    __glewVertexAttribI2uivEXT @3505 DATA
    __glewVertexAttribI3i @3506 DATA
    __glewVertexAttribI3iEXT @3507 DATA
    __glewVertexAttribI3iv @3508 DATA
    __glewVertexAttribI3ivEXT @3509 DATA
    __glewVertexAttribI3ui @3510 DATA
    __glewVertexAttribI3uiEXT @3511 DATA
    __glewVertexAttribI3uiv @3512 DATA
    __glewVertexAttribI3uivEXT @3513 DATA
    __glewVertexAttribI4bv @3514 DATA
    __glewVertexAttribI4bvEXT @3515 DATA
    __glewVertexAttribI4i @3516 DATA
    __glewVertexAttribI4iEXT @3517 DATA
    __glewVertexAttribI4iv @3518 DATA
    __glewVertexAttribI4ivEXT @3519 DATA
    __glewVertexAttribI4sv @3520 DATA
    __glewVertexAttribI4svEXT @3521 DATA
    __glewVertexAttribI4ubv @3522 DATA
    __glewVertexAttribI4ubvEXT @3523 DATA
    __glewVertexAttribI4ui @3524 DATA
    __glewVertexAttribI4uiEXT @3525 DATA
    __glewVertexAttribI4uiv @3526 DATA
    __glewVertexAttribI4uivEXT @3527 DATA
    __glewVertexAttribI4usv @3528 DATA
    __glewVertexAttribI4usvEXT @3529 DATA
    __glewVertexAttribIFormat @3530 DATA
    __glewVertexAttribIFormatNV @3531 DATA
    __glewVertexAttribIPointer @3532 DATA
    __glewVertexAttribIPointerEXT @3533 DATA
    __glewVertexAttribL1d @3534 DATA
    __glewVertexAttribL1dEXT @3535 DATA
    __glewVertexAttribL1dv @3536 DATA
    __glewVertexAttribL1dvEXT @3537 DATA
    __glewVertexAttribL1i64NV @3538 DATA
    __glewVertexAttribL1i64vNV @3539 DATA
    __glewVertexAttribL1ui64NV @3540 DATA
    __glewVertexAttribL1ui64vNV @3541 DATA
    __glewVertexAttribL2d @3542 DATA
    __glewVertexAttribL2dEXT @3543 DATA
    __glewVertexAttribL2dv @3544 DATA
    __glewVertexAttribL2dvEXT @3545 DATA
    __glewVertexAttribL2i64NV @3546 DATA
    __glewVertexAttribL2i64vNV @3547 DATA
    __glewVertexAttribL2ui64NV @3548 DATA
    __glewVertexAttribL2ui64vNV @3549 DATA
    __glewVertexAttribL3d @3550 DATA
    __glewVertexAttribL3dEXT @3551 DATA
    __glewVertexAttribL3dv @3552 DATA
    __glewVertexAttribL3dvEXT @3553 DATA
    __glewVertexAttribL3i64NV @3554 DATA
    __glewVertexAttribL3i64vNV @3555 DATA
    __glewVertexAttribL3ui64NV @3556 DATA
    __glewVertexAttribL3ui64vNV @3557 DATA
    __glewVertexAttribL4d @3558 DATA
    __glewVertexAttribL4dEXT @3559 DATA
    __glewVertexAttribL4dv @3560 DATA
    __glewVertexAttribL4dvEXT @3561 DATA
    __glewVertexAttribL4i64NV @3562 DATA
    __glewVertexAttribL4i64vNV @3563 DATA
    __glewVertexAttribL4ui64NV @3564 DATA
    __glewVertexAttribL4ui64vNV @3565 DATA
    __glewVertexAttribLFormat @3566 DATA
    __glewVertexAttribLFormatNV @3567 DATA
    __glewVertexAttribLPointer @3568 DATA
    __glewVertexAttribLPointerEXT @3569 DATA
    __glewVertexAttribP1ui @3570 DATA
    __glewVertexAttribP1uiv @3571 DATA
    __glewVertexAttribP2ui @3572 DATA
    __glewVertexAttribP2uiv @3573 DATA
    __glewVertexAttribP3ui @3574 DATA
    __glewVertexAttribP3uiv @3575 DATA
    __glewVertexAttribP4ui @3576 DATA
    __glewVertexAttribP4uiv @3577 DATA
    __glewVertexAttribPointer @3578 DATA
    __glewVertexAttribPointerARB @3579 DATA
    __glewVertexAttribPointerNV @3580 DATA
    __glewVertexAttribs1dvNV @3581 DATA
    __glewVertexAttribs1fvNV @3582 DATA
    __glewVertexAttribs1hvNV @3583 DATA
    __glewVertexAttribs1svNV @3584 DATA
    __glewVertexAttribs2dvNV @3585 DATA
    __glewVertexAttribs2fvNV @3586 DATA
    __glewVertexAttribs2hvNV @3587 DATA
    __glewVertexAttribs2svNV @3588 DATA
    __glewVertexAttribs3dvNV @3589 DATA
    __glewVertexAttribs3fvNV @3590 DATA
    __glewVertexAttribs3hvNV @3591 DATA
    __glewVertexAttribs3svNV @3592 DATA
    __glewVertexAttribs4dvNV @3593 DATA
    __glewVertexAttribs4fvNV @3594 DATA
    __glewVertexAttribs4hvNV @3595 DATA
    __glewVertexAttribs4svNV @3596 DATA
    __glewVertexAttribs4ubvNV @3597 DATA
    __glewVertexBindingDivisor @3598 DATA
    __glewVertexBlendARB @3599 DATA
    __glewVertexBlendEnvfATI @3600 DATA
    __glewVertexBlendEnviATI @3601 DATA
    __glewVertexFormatNV @3602 DATA
    __glewVertexP2ui @3603 DATA
    __glewVertexP2uiv @3604 DATA
    __glewVertexP3ui @3605 DATA
    __glewVertexP3uiv @3606 DATA
    __glewVertexP4ui @3607 DATA
    __glewVertexP4uiv @3608 DATA
    __glewVertexPointerEXT @3609 DATA
    __glewVertexPointerListIBM @3610 DATA
    __glewVertexPointervINTEL @3611 DATA
    __glewVertexStream1dATI @3612 DATA
    __glewVertexStream1dvATI @3613 DATA
    __glewVertexStream1fATI @3614 DATA
    __glewVertexStream1fvATI @3615 DATA
    __glewVertexStream1iATI @3616 DATA
    __glewVertexStream1ivATI @3617 DATA
    __glewVertexStream1sATI @3618 DATA
    __glewVertexStream1svATI @3619 DATA
    __glewVertexStream2dATI @3620 DATA
    __glewVertexStream2dvATI @3621 DATA
    __glewVertexStream2fATI @3622 DATA
    __glewVertexStream2fvATI @3623 DATA
    __glewVertexStream2iATI @3624 DATA
    __glewVertexStream2ivATI @3625 DATA
    __glewVertexStream2sATI @3626 DATA
    __glewVertexStream2svATI @3627 DATA
    __glewVertexStream3dATI @3628 DATA
    __glewVertexStream3dvATI @3629 DATA
    __glewVertexStream3fATI @3630 DATA
    __glewVertexStream3fvATI @3631 DATA
    __glewVertexStream3iATI @3632 DATA
    __glewVertexStream3ivATI @3633 DATA
    __glewVertexStream3sATI @3634 DATA
    __glewVertexStream3svATI @3635 DATA
    __glewVertexStream4dATI @3636 DATA
    __glewVertexStream4dvATI @3637 DATA
    __glewVertexStream4fATI @3638 DATA
    __glewVertexStream4fvATI @3639 DATA
    __glewVertexStream4iATI @3640 DATA
    __glewVertexStream4ivATI @3641 DATA
    __glewVertexStream4sATI @3642 DATA
    __glewVertexStream4svATI @3643 DATA
    __glewVertexWeightPointerEXT @3644 DATA
    __glewVertexWeightfEXT @3645 DATA
    __glewVertexWeightfvEXT @3646 DATA
    __glewVertexWeighthNV @3647 DATA
    __glewVertexWeighthvNV @3648 DATA
    __glewVideoCaptureNV @3649 DATA
    __glewVideoCaptureStreamParameterdvNV @3650 DATA
    __glewVideoCaptureStreamParameterfvNV @3651 DATA
    __glewVideoCaptureStreamParameterivNV @3652 DATA
    __glewViewportArrayv @3653 DATA
    __glewViewportIndexedf @3654 DATA
    __glewViewportIndexedfv @3655 DATA
    __glewWaitSync @3656 DATA
    __glewWeightPathsNV @3657 DATA
    __glewWeightPointerARB @3658 DATA
    __glewWeightbvARB @3659 DATA
    __glewWeightdvARB @3660 DATA
    __glewWeightfvARB @3661 DATA
    __glewWeightivARB @3662 DATA
    __glewWeightsvARB @3663 DATA
    __glewWeightubvARB @3664 DATA
    __glewWeightuivARB @3665 DATA
    __glewWeightusvARB @3666 DATA
    __glewWindowPos2d @3667 DATA
    __glewWindowPos2dARB @3668 DATA
    __glewWindowPos2dMESA @3669 DATA
    __glewWindowPos2dv @3670 DATA
    __glewWindowPos2dvARB @3671 DATA
    __glewWindowPos2dvMESA @3672 DATA
    __glewWindowPos2f @3673 DATA
    __glewWindowPos2fARB @3674 DATA
    __glewWindowPos2fMESA @3675 DATA
    __glewWindowPos2fv @3676 DATA
    __glewWindowPos2fvARB @3677 DATA
    __glewWindowPos2fvMESA @3678 DATA
    __glewWindowPos2i @3679 DATA
    __glewWindowPos2iARB @3680 DATA
    __glewWindowPos2iMESA @3681 DATA
    __glewWindowPos2iv @3682 DATA
    __glewWindowPos2ivARB @3683 DATA
    __glewWindowPos2ivMESA @3684 DATA
    __glewWindowPos2s @3685 DATA
    __glewWindowPos2sARB @3686 DATA
    __glewWindowPos2sMESA @3687 DATA
    __glewWindowPos2sv @3688 DATA
    __glewWindowPos2svARB @3689 DATA
    __glewWindowPos2svMESA @3690 DATA
    __glewWindowPos3d @3691 DATA
    __glewWindowPos3dARB @3692 DATA
    __glewWindowPos3dMESA @3693 DATA
    __glewWindowPos3dv @3694 DATA
    __glewWindowPos3dvARB @3695 DATA
    __glewWindowPos3dvMESA @3696 DATA
    __glewWindowPos3f @3697 DATA
    __glewWindowPos3fARB @3698 DATA
    __glewWindowPos3fMESA @3699 DATA
    __glewWindowPos3fv @3700 DATA
    __glewWindowPos3fvARB @3701 DATA
    __glewWindowPos3fvMESA @3702 DATA
    __glewWindowPos3i @3703 DATA
    __glewWindowPos3iARB @3704 DATA
    __glewWindowPos3iMESA @3705 DATA
    __glewWindowPos3iv @3706 DATA
    __glewWindowPos3ivARB @3707 DATA
    __glewWindowPos3ivMESA @3708 DATA
    __glewWindowPos3s @3709 DATA
    __glewWindowPos3sARB @3710 DATA
    __glewWindowPos3sMESA @3711 DATA
    __glewWindowPos3sv @3712 DATA
    __glewWindowPos3svARB @3713 DATA
    __glewWindowPos3svMESA @3714 DATA
    __glewWindowPos4dMESA @3715 DATA
    __glewWindowPos4dvMESA @3716 DATA
    __glewWindowPos4fMESA @3717 DATA
    __glewWindowPos4fvMESA @3718 DATA
    __glewWindowPos4iMESA @3719 DATA
    __glewWindowPos4ivMESA @3720 DATA
    __glewWindowPos4sMESA @3721 DATA
    __glewWindowPos4svMESA @3722 DATA
    __glewWriteMaskEXT @3723 DATA
    __wglewAllocateMemoryNV @3724 DATA
    __wglewAssociateImageBufferEventsI3D @3725 DATA
    __wglewBeginFrameTrackingI3D @3726 DATA
    __wglewBindDisplayColorTableEXT @3727 DATA
    __wglewBindSwapBarrierNV @3728 DATA
    __wglewBindTexImageARB @3729 DATA
    __wglewBindVideoCaptureDeviceNV @3730 DATA
    __wglewBindVideoDeviceNV @3731 DATA
    __wglewBindVideoImageNV @3732 DATA
    __wglewBlitContextFramebufferAMD @3733 DATA
    __wglewChoosePixelFormatARB @3734 DATA
    __wglewChoosePixelFormatEXT @3735 DATA
    __wglewCopyImageSubDataNV @3736 DATA
    __wglewCreateAffinityDCNV @3737 DATA
    __wglewCreateAssociatedContextAMD @3738 DATA
    __wglewCreateAssociatedContextAttribsAMD @3739 DATA
    __wglewCreateBufferRegionARB @3740 DATA
    __wglewCreateContextAttribsARB @3741 DATA
    __wglewCreateDisplayColorTableEXT @3742 DATA
    __wglewCreateImageBufferI3D @3743 DATA
    __wglewCreatePbufferARB @3744 DATA
    __wglewCreatePbufferEXT @3745 DATA
    __wglewDXCloseDeviceNV @3746 DATA
    __wglewDXLockObjectsNV @3747 DATA
    __wglewDXObjectAccessNV @3748 DATA
    __wglewDXOpenDeviceNV @3749 DATA
    __wglewDXRegisterObjectNV @3750 DATA
    __wglewDXSetResourceShareHandleNV @3751 DATA
    __wglewDXUnlockObjectsNV @3752 DATA
    __wglewDXUnregisterObjectNV @3753 DATA
    __wglewDeleteAssociatedContextAMD @3754 DATA
    __wglewDeleteBufferRegionARB @3755 DATA
    __wglewDeleteDCNV @3756 DATA
    __wglewDestroyDisplayColorTableEXT @3757 DATA
    __wglewDestroyImageBufferI3D @3758 DATA
    __wglewDestroyPbufferARB @3759 DATA
    __wglewDestroyPbufferEXT @3760 DATA
    __wglewDisableFrameLockI3D @3761 DATA
    __wglewDisableGenlockI3D @3762 DATA
    __wglewEnableFrameLockI3D @3763 DATA
    __wglewEnableGenlockI3D @3764 DATA
    __wglewEndFrameTrackingI3D @3765 DATA
    __wglewEnumGpuDevicesNV @3766 DATA
    __wglewEnumGpusFromAffinityDCNV @3767 DATA
    __wglewEnumGpusNV @3768 DATA
    __wglewEnumerateVideoCaptureDevicesNV @3769 DATA
    __wglewEnumerateVideoDevicesNV @3770 DATA
    __wglewFreeMemoryNV @3771 DATA
    __wglewGenlockSampleRateI3D @3772 DATA
    __wglewGenlockSourceDelayI3D @3773 DATA
    __wglewGenlockSourceEdgeI3D @3774 DATA
    __wglewGenlockSourceI3D @3775 DATA
    __wglewGetContextGPUIDAMD @3776 DATA
    __wglewGetCurrentAssociatedContextAMD @3777 DATA
    __wglewGetCurrentReadDCARB @3778 DATA
    __wglewGetCurrentReadDCEXT @3779 DATA
    __wglewGetDigitalVideoParametersI3D @3780 DATA
    __wglewGetExtensionsStringARB @3781 DATA
    __wglewGetExtensionsStringEXT @3782 DATA
    __wglewGetFrameUsageI3D @3783 DATA
    __wglewGetGPUIDsAMD @3784 DATA
    __wglewGetGPUInfoAMD @3785 DATA
    __wglewGetGammaTableI3D @3786 DATA
    __wglewGetGammaTableParametersI3D @3787 DATA
    __wglewGetGenlockSampleRateI3D @3788 DATA
    __wglewGetGenlockSourceDelayI3D @3789 DATA
    __wglewGetGenlockSourceEdgeI3D @3790 DATA
    __wglewGetGenlockSourceI3D @3791 DATA
    __wglewGetMscRateOML @3792 DATA
    __wglewGetPbufferDCARB @3793 DATA
    __wglewGetPbufferDCEXT @3794 DATA
    __wglewGetPixelFormatAttribfvARB @3795 DATA
    __wglewGetPixelFormatAttribfvEXT @3796 DATA
    __wglewGetPixelFormatAttribivARB @3797 DATA
    __wglewGetPixelFormatAttribivEXT @3798 DATA
    __wglewGetSwapIntervalEXT @3799 DATA
    __wglewGetSyncValuesOML @3800 DATA
    __wglewGetVideoDeviceNV @3801 DATA
    __wglewGetVideoInfoNV @3802 DATA
    __wglewIsEnabledFrameLockI3D @3803 DATA
    __wglewIsEnabledGenlockI3D @3804 DATA
    __wglewJoinSwapGroupNV @3805 DATA
    __wglewLoadDisplayColorTableEXT @3806 DATA
    __wglewLockVideoCaptureDeviceNV @3807 DATA
    __wglewMakeAssociatedContextCurrentAMD @3808 DATA
    __wglewMakeContextCurrentARB @3809 DATA
    __wglewMakeContextCurrentEXT @3810 DATA
    __wglewQueryCurrentContextNV @3811 DATA
    __wglewQueryFrameCountNV @3812 DATA
    __wglewQueryFrameLockMasterI3D @3813 DATA
    __wglewQueryFrameTrackingI3D @3814 DATA
    __wglewQueryGenlockMaxSourceDelayI3D @3815 DATA
    __wglewQueryMaxSwapGroupsNV @3816 DATA
    __wglewQueryPbufferARB @3817 DATA
    __wglewQueryPbufferEXT @3818 DATA
    __wglewQuerySwapGroupNV @3819 DATA
    __wglewQueryVideoCaptureDeviceNV @3820 DATA
    __wglewReleaseImageBufferEventsI3D @3821 DATA
    __wglewReleasePbufferDCARB @3822 DATA
    __wglewReleasePbufferDCEXT @3823 DATA
    __wglewReleaseTexImageARB @3824 DATA
    __wglewReleaseVideoCaptureDeviceNV @3825 DATA
    __wglewReleaseVideoDeviceNV @3826 DATA
    __wglewReleaseVideoImageNV @3827 DATA
    __wglewResetFrameCountNV @3828 DATA
    __wglewRestoreBufferRegionARB @3829 DATA
    __wglewSaveBufferRegionARB @3830 DATA
    __wglewSendPbufferToVideoNV @3831 DATA
    __wglewSetDigitalVideoParametersI3D @3832 DATA
    __wglewSetGammaTableI3D @3833 DATA
    __wglewSetGammaTableParametersI3D @3834 DATA
    __wglewSetPbufferAttribARB @3835 DATA
    __wglewSetStereoEmitterState3DL @3836 DATA
    __wglewSwapBuffersMscOML @3837 DATA
    __wglewSwapIntervalEXT @3838 DATA
    __wglewSwapLayerBuffersMscOML @3839 DATA
    __wglewWaitForMscOML @3840 DATA
    __wglewWaitForSbcOML @3841 DATA
    check_for_GL_errors @3842
    clamp_byte @3843
    code_default_frag @3844 DATA
    code_default_vert @3845 DATA
    code_rtt_discard_frag @3846 DATA
    code_rtt_discard_vert @3847 DATA
    code_rtt_frag @3848 DATA
    code_rtt_vert @3849 DATA
    code_screen_frag @3850 DATA
    code_screen_vert @3851 DATA
    compress_DDS_alpha_block @3852
    compress_DDS_color_block @3853
    compute_color_line_STDEV @3854
    convert_RGB_to_YCoCg @3855
    convert_YCoCg_to_RGB @3856
    convert_bit_range @3857
    convert_image_to_DXT1 @3858
    convert_image_to_DXT5 @3859
    find_max_RGBE @3860
    glewExperimental @3861 DATA
    glewGetErrorString@4 @3862
    glewGetExtension@4 @3863
    glewGetString@4 @3864
    glewInit@0 @3865
    glewIsSupported@4 @3866
    loaders @3867 DATA
    mipmap_image @3868
    query_DXT_capability @3869
    query_NPOT_capability @3870
    query_cubemap_capability @3871
    query_tex_rectangle_capability @3872
    result_string_pointer @3873 DATA
    rgb_888_from_565 @3874
    rgb_to_565 @3875
    save_image_as_DDS @3876
    scale_image_RGB_to_NTSC_safe @3877
    soilGlCompressedTexImage2D @3878 DATA
    stbi_bmp_load @3879
    stbi_bmp_load_from_file @3880
    stbi_bmp_load_from_memory @3881
    stbi_bmp_test_file @3882
    stbi_bmp_test_memory @3883
    stbi_convert_bit_range @3884
    stbi_dds_load @3885
    stbi_dds_load_from_file @3886
    stbi_dds_load_from_memory @3887
    stbi_dds_test_file @3888
    stbi_dds_test_memory @3889
    stbi_decode_DXT1_block @3890
    stbi_decode_DXT23_alpha_block @3891
    stbi_decode_DXT45_alpha_block @3892
    stbi_decode_DXT_color_block @3893
    stbi_failure_reason @3894
    stbi_hdr_load_from_file @3895
    stbi_hdr_load_from_memory @3896
    stbi_hdr_load_rgbe @3897
    stbi_hdr_load_rgbe_file @3898
    stbi_hdr_load_rgbe_memory @3899
    stbi_hdr_test_file @3900
    stbi_hdr_test_memory @3901
    stbi_hdr_to_ldr_gamma @3902
    stbi_hdr_to_ldr_scale @3903
    stbi_image_free @3904
    stbi_is_hdr @3905
    stbi_is_hdr_from_file @3906
    stbi_is_hdr_from_memory @3907
    stbi_jpeg_load @3908
    stbi_jpeg_load_from_file @3909
    stbi_jpeg_load_from_memory @3910
    stbi_jpeg_test_file @3911
    stbi_jpeg_test_memory @3912
    stbi_ldr_to_hdr_gamma @3913
    stbi_ldr_to_hdr_scale @3914
    stbi_load @3915
    stbi_load_from_file @3916
    stbi_load_from_memory @3917
    stbi_loadf @3918
    stbi_loadf_from_file @3919
    stbi_loadf_from_memory @3920
    stbi_png_load @3921
    stbi_png_load_from_file @3922
    stbi_png_load_from_memory @3923
    stbi_png_test_file @3924
    stbi_png_test_memory @3925
    stbi_psd_load @3926
    stbi_psd_load_from_file @3927
    stbi_psd_load_from_memory @3928
    stbi_psd_test_file @3929
    stbi_psd_test_memory @3930
    stbi_register_loader @3931
    stbi_rgb_888_from_565 @3932
    stbi_tga_load @3933
    stbi_tga_load_from_file @3934
    stbi_tga_load_from_memory @3935
    stbi_tga_test_file @3936
    stbi_tga_test_memory @3937
    stbi_write_bmp @3938
    stbi_write_tga @3939
    stbi_zlib_decode_buffer @3940
    stbi_zlib_decode_malloc @3941
    stbi_zlib_decode_malloc_guesssize @3942
    stbi_zlib_decode_noheader_buffer @3943
    stbi_zlib_decode_noheader_malloc @3944
    throwCritExceptions @3945 DATA
    throwExceptions @3946 DATA
    up_scale_image @3947
    wglewContextInit@0 @3948
    wglewGetExtension@4 @3949
    wglewIsSupported@4 @3950
